Archive member included because of file (symbol)

c:/hightec/toolchains/tricore/v4.6.6.1/bin/../lib/gcc/tricore/4.6.4/../../../../tricore/lib/tc161/short-double\libdnk_c.a(rand.o)
                              src\Core\SecM\SecM.o (rand)
c:/hightec/toolchains/tricore/v4.6.6.1/bin/../lib/gcc/tricore/4.6.4/../../../../tricore/lib/tc161/short-double\libdnk_c.a(srand.o)
                              src\Core\SecM\SecM.o (srand)
c:/hightec/toolchains/tricore/v4.6.6.1/bin/../lib/gcc/tricore/4.6.4/../../../../tricore/lib/tc161/short-double\libos.a(wdtcon.o)
                              src\Driver\Can\Can.o (unlock_wdtcon)
c:/hightec/toolchains/tricore/v4.6.6.1/bin/../lib/gcc/tricore/4.6.4/../../../../tricore/lib/tc161/short-double\libos.a(libos_exit.o)
                              src\crt0-tc2x.o (_exit)

Discarded input sections

 .data          0x00000000        0x0 c:/hightec/toolchains/tricore/v4.6.6.1/bin/../lib/gcc/tricore/4.6.4/tc161/short-double/crti.o
 .bss           0x00000000        0x0 c:/hightec/toolchains/tricore/v4.6.6.1/bin/../lib/gcc/tricore/4.6.4/tc161/short-double/crti.o
 .data          0x00000000        0x8 c:/hightec/toolchains/tricore/v4.6.6.1/bin/../lib/gcc/tricore/4.6.4/tc161/short-double/crtbegin.o
 .data          0x00000000        0x0 src\Cfg\Can\Can_Cfg.o
 .bss           0x00000000        0x0 src\Cfg\Can\Can_Cfg.o
 .data          0x00000000        0x0 src\Cfg\CanIf\CanIf_Cfg.o
 .bss           0x00000000        0x0 src\Cfg\CanIf\CanIf_Cfg.o
 .data          0x00000000        0x0 src\Cfg\CanTp\CanTp_Cfg.o
 .bss           0x00000000        0x0 src\Cfg\CanTp\CanTp_Cfg.o
 .data          0x00000000        0x0 src\Cfg\Dcm\Dcm_Cfg.o
 .bss           0x00000000        0x0 src\Cfg\Dcm\Dcm_Cfg.o
 .data          0x00000000        0x0 src\Cfg\FL\FL_Cfg.o
 .bss           0x00000000        0x0 src\Cfg\FL\FL_Cfg.o
 .data          0x00000000        0x0 src\Cfg\Mcu\Mcu_PBCfg.o
 .bss           0x00000000        0x0 src\Cfg\Mcu\Mcu_PBCfg.o
 .data          0x00000000        0x0 src\Core\Appl\Appl.o
 .data          0x00000000        0x0 src\Core\Cal\Cal.o
 .bss           0x00000000        0x0 src\Core\Cal\Cal.o
 .data          0x00000000        0x0 src\Core\CanIf\CanIf.o
 .bss           0x00000000        0x0 src\Core\CanIf\CanIf.o
 .data          0x00000000        0x0 src\Core\CanTp\CanTp.o
 .data          0x00000000        0x0 src\Core\Dcm\Dcm.o
 .data          0x00000000        0x0 src\Core\Dcm\Dcm_Dsp.o
 .data          0x00000000        0x0 src\Core\SecM\SecM.o
 .data          0x00000000        0x0 src\Driver\Can\Can.o
 .bss           0x00000000        0x0 src\Driver\Fls\Fls.o
 .data          0x00000000        0x0 src\Driver\MCU\Mcu_Crc.o
 .bss           0x00000000        0x0 src\Driver\MCU\Mcu_Crc.o
 .data          0x00000000        0x0 src\Driver\MCU\Mcu_Dma.o
 .bss           0x00000000        0x0 src\Driver\MCU\Mcu_Dma.o
 .data          0x00000000        0x0 src\Driver\MCU\Mcu_Platform.o
 .bss           0x00000000        0x0 src\Driver\MCU\Mcu_Platform.o
 .data          0x00000000        0x0 src\Driver\MCU\Mcu_Ver.o
 .bss           0x00000000        0x0 src\Driver\MCU\Mcu_Ver.o
 .data          0x00000000        0x0 src\Driver\Stm\STM.o
 .bss           0x00000000        0x0 src\Driver\Stm\STM.o
 .data          0x00000000        0x0 src\Driver\Wdg\Wdg.o
 .bss           0x00000000        0x0 src\Driver\Wdg\Wdg.o
 .data          0x00000000        0x0 src\Driver\includes\Mcal.o
 .bss           0x00000000        0x0 src\Driver\includes\Mcal.o
 .data          0x00000000        0x0 src\Driver\includes\Mcal_DmaLib.o
 .bss           0x00000000        0x0 src\Driver\includes\Mcal_DmaLib.o
 .data          0x00000000        0x0 src\Driver\includes\SchM.o
 .bss           0x00000000        0x0 src\Driver\includes\SchM.o
 .data          0x00000000        0x0 src\crt0-tc2x.o
 .bss           0x00000000        0x0 src\crt0-tc2x.o
 .data          0x00000000        0x0 src\main.o
 .bss           0x00000000        0x0 src\main.o
 .data          0x00000000        0x0 c:/hightec/toolchains/tricore/v4.6.6.1/bin/../lib/gcc/tricore/4.6.4/../../../../tricore/lib/tc161/short-double\libdnk_c.a(srand.o)
 .bss           0x00000000        0x0 c:/hightec/toolchains/tricore/v4.6.6.1/bin/../lib/gcc/tricore/4.6.4/../../../../tricore/lib/tc161/short-double\libdnk_c.a(srand.o)
 .data          0x00000000        0x0 c:/hightec/toolchains/tricore/v4.6.6.1/bin/../lib/gcc/tricore/4.6.4/../../../../tricore/lib/tc161/short-double\libos.a(wdtcon.o)
 .bss           0x00000000        0x0 c:/hightec/toolchains/tricore/v4.6.6.1/bin/../lib/gcc/tricore/4.6.4/../../../../tricore/lib/tc161/short-double\libos.a(wdtcon.o)
 .data          0x00000000        0x0 c:/hightec/toolchains/tricore/v4.6.6.1/bin/../lib/gcc/tricore/4.6.4/../../../../tricore/lib/tc161/short-double\libos.a(libos_exit.o)
 .bss           0x00000000        0x8 c:/hightec/toolchains/tricore/v4.6.6.1/bin/../lib/gcc/tricore/4.6.4/../../../../tricore/lib/tc161/short-double\libos.a(libos_exit.o)
 .data          0x00000000        0x8 c:/hightec/toolchains/tricore/v4.6.6.1/bin/../lib/gcc/tricore/4.6.4/tc161/short-double/crtend.o
 .bss           0x00000000        0x0 c:/hightec/toolchains/tricore/v4.6.6.1/bin/../lib/gcc/tricore/4.6.4/tc161/short-double/crtend.o
 .jcr           0x00000000        0x4 c:/hightec/toolchains/tricore/v4.6.6.1/bin/../lib/gcc/tricore/4.6.4/tc161/short-double/crtend.o
 .data          0x00000000        0x0 c:/hightec/toolchains/tricore/v4.6.6.1/bin/../lib/gcc/tricore/4.6.4/tc161/short-double/crtn.o
 .bss           0x00000000        0x0 c:/hightec/toolchains/tricore/v4.6.6.1/bin/../lib/gcc/tricore/4.6.4/tc161/short-double/crtn.o

----- BEGIN EXTENDED MAP LISTING -----

>>> Linker and link run information

Linker version: GNU ld version (GNU Binutils) 2.20 (TriCore) using BFD version (GNU Binutils) 2.20 (v2.3), Tool Version v2.7
Name of linker executable: c:/hightec/toolchains/tricore/v4.6.6.1/bin/../lib/gcc/tricore/4.6.4/../../../../tricore/bin/ld.exe
Date of link run: Tue Jul 02 19:09:22 2019
Name of linker map file: HTCU200_FBL.map

>>> Symbols (global (S = g) and static (S = l); sorted by address)

==========================================================================================================================================================================================================================================
Start      End        Size S Name                                         Memory          O-Sec         I-Sec                            Input object                                                                                     
==========================================================================================================================================================================================================================================
0x00000100 0x00000100    0 g __ISTACK_SIZE                                *ABS*           *ABS*         *ABS*                            *ABS*
0x00000400 0x00000400    0 g __USTACK_SIZE                                *ABS*           *ABS*         *ABS*                            *ABS*
0x00001000 0x00001000    0 g __HEAP_SIZE                                  *ABS*           *ABS*         *ABS*                            *ABS*
0x00002700 0x00002700    0 g __TRICORE_DERIVATE_NAME__                    *ABS*           *ABS*         *ABS*                            *ABS*
0x00004000 0x00004000    0 g __CSA_SIZE                                   *ABS*           *ABS*         *ABS*                            *ABS*
0x00004000 0x00004000    0 g __PMU_DFLASH0_1_SIZE                         *ABS*           *ABS*         *ABS*                            *ABS*
0x00004000 0x00004000    0 g __PMU_DFLASH0_NVM_SIZE                       *ABS*           *ABS*         *ABS*                            *ABS*
0x00006000 0x00006000    0 g __PMI_PSPR_SIZE                              *ABS*           *ABS*         *ABS*                            *ABS*
0x00008000 0x00008000    0 g __BROM_SIZE                                  *ABS*           *ABS*         *ABS*                            *ABS*
0x00008000 0x00008000    0 g __LMU_SRAM_SIZE                              *ABS*           *ABS*         *ABS*                            *ABS*
0x0000fe00 0x0000fe00    0 l $pcxi                                        *ABS*           *ABS*         *ABS*                            *ABS*
0x0000fe04 0x0000fe04    0 l $psw                                         *ABS*           *ABS*         *ABS*                            *ABS*
0x0000fe1c 0x0000fe1c    0 l CORE_ID                                      *ABS*           *ABS*         *ABS*                            *ABS*
0x0000fe28 0x0000fe28    0 l $isp                                         *ABS*           *ABS*         *ABS*                            *ABS*
0x0000fe38 0x0000fe38    0 l $fcx                                         *ABS*           *ABS*         *ABS*                            *ABS*
0x0000fe3c 0x0000fe3c    0 l $lcx                                         *ABS*           *ABS*         *ABS*                            *ABS*
0x00010000 0x00010000    0 g __PMU_DFLASH1_SIZE                           *ABS*           *ABS*         *ABS*                            *ABS*
0x00010000 0x00010000    0 g __PMU_PFLASH0_SIZE                           *ABS*           *ABS*         *ABS*                            *ABS*
0x0001c000 0x0001c000    0 g __DMI_DSPR_SIZE                              *ABS*           *ABS*         *ABS*                            *ABS*
0x000fc000 0x000fc000    0 g __PMU_DFLASH0_SIZE                           *ABS*           *ABS*         *ABS*                            *ABS*
0x00200000 0x00200000    0 g __PMU_PFLASH1_SIZE                           *ABS*           *ABS*         *ABS*                            *ABS*
0x80000000 0x80000000    0 g __PMU_PFLASH0_BEGIN                          *ABS*           *ABS*         *ABS*                            *ABS*
0x80000020 0x80000020    0 g _start                                       PMU_PFLASH0     .startup_code .startup_code                    src\crt0-tc2x.o
0x80000024 0x80000024    0 l _startaddr                                   PMU_PFLASH0     .startup_code .startup_code                    src\crt0-tc2x.o
0x80000048 0x80000048    0 l do_endinit_cpuN                              PMU_PFLASH0     .startup_code .startup_code                    src\crt0-tc2x.o
0x80000058 0x80000058    0 l endinit_done_cpuN                            PMU_PFLASH0     .startup_code .startup_code                    src\crt0-tc2x.o
0x80000064 0x80000064    0 l do_endinit_s                                 PMU_PFLASH0     .startup_code .startup_code                    src\crt0-tc2x.o
0x80000078 0x80000078    0 l endinit_done_s                               PMU_PFLASH0     .startup_code .startup_code                    src\crt0-tc2x.o
0x80000084 0x80000084    0 l init_stack_pointers                          PMU_PFLASH0     .startup_code .startup_code                    src\crt0-tc2x.o
0x8000010c 0x8000010c    0 l disable_safety_wdt                           PMU_PFLASH0     .startup_code .startup_code                    src\crt0-tc2x.o
0x80000130 0x80000130    0 l jump_to_remapped                             PMU_PFLASH0     .startup_code .startup_code                    src\crt0-tc2x.o
0x80000140 0x80000140    0 l __remapped                                   PMU_PFLASH0     .startup_code .startup_code                    src\crt0-tc2x.o
0x80000190 0x80000190    0 l asm_clear_endinit_xx                         PMU_PFLASH0     .startup_code .startup_code                    src\crt0-tc2x.o
0x800001bc 0x800001bc    0 l asm_set_endinit_xx                           PMU_PFLASH0     .startup_code .startup_code                    src\crt0-tc2x.o
0x800001e8 0x800001e8    0 g __init_csa                                   PMU_PFLASH0     .startup_code .startup_code                    src\crt0-tc2x.o
0x8000024c 0x8000024c    0 l csa_loop                                     PMU_PFLASH0     .startup_code .startup_code                    src\crt0-tc2x.o
0x80000280 0x80000280    0 g __clear_table_func                           PMU_PFLASH0     .startup_code .startup_code                    src\crt0-tc2x.o
0x80000290 0x80000290    0 l __clear_table_next                           PMU_PFLASH0     .startup_code .startup_code                    src\crt0-tc2x.o
0x800002b0 0x800002b0    0 l __clear_dword                                PMU_PFLASH0     .startup_code .startup_code                    src\crt0-tc2x.o
0x800002b8 0x800002b8    0 l __clear_word                                 PMU_PFLASH0     .startup_code .startup_code                    src\crt0-tc2x.o
0x800002cc 0x800002cc    0 l __clear_hword                                PMU_PFLASH0     .startup_code .startup_code                    src\crt0-tc2x.o
0x800002e0 0x800002e0    0 l __clear_byte                                 PMU_PFLASH0     .startup_code .startup_code                    src\crt0-tc2x.o
0x800002ec 0x800002ec    0 l __clear_table_done                           PMU_PFLASH0     .startup_code .startup_code                    src\crt0-tc2x.o
0x800002f0 0x800002f0    0 g __copy_table_func                            PMU_PFLASH0     .startup_code .startup_code                    src\crt0-tc2x.o
0x800002f8 0x800002f8    0 l __copy_table_next                            PMU_PFLASH0     .startup_code .startup_code                    src\crt0-tc2x.o
0x8000031c 0x8000031c    0 l __copy_dword                                 PMU_PFLASH0     .startup_code .startup_code                    src\crt0-tc2x.o
0x80000328 0x80000328    0 l __copy_word                                  PMU_PFLASH0     .startup_code .startup_code                    src\crt0-tc2x.o
0x80000340 0x80000340    0 l __copy_hword                                 PMU_PFLASH0     .startup_code .startup_code                    src\crt0-tc2x.o
0x80000358 0x80000358    0 l __copy_byte                                  PMU_PFLASH0     .startup_code .startup_code                    src\crt0-tc2x.o
0x80000368 0x80000368    0 l __copy_table_done                            PMU_PFLASH0     .startup_code .startup_code                    src\crt0-tc2x.o
0x80000374 0x8000044b  216 g Appl_EcuStartup                              PMU_PFLASH0     .text         .text                            src\Core\Appl\Appl.o
0x8000044c 0x800004d1  134 g Appl_FlStartup                               PMU_PFLASH0     .text         .text                            src\Core\Appl\Appl.o
0x800004d2 0x800004d5    4 g Appl_EcuShutdown                             PMU_PFLASH0     .text         .text                            src\Core\Appl\Appl.o
0x800004d6 0x800004f1   28 g Appl_EcuReset                                PMU_PFLASH0     .text         .text                            src\Core\Appl\Appl.o
0x800004f2 0x80000551   96 g Appl_CheckConsistency                        PMU_PFLASH0     .text         .text                            src\Core\Appl\Appl.o
0x80000552 0x8000063f  238 g Appl_UpdateTriggerCondition                  PMU_PFLASH0     .text         .text                            src\Core\Appl\Appl.o
0x80000640 0x80000693   84 g Appl_Memcpy                                  PMU_PFLASH0     .text         .text                            src\Core\Appl\Appl.o
0x80000694 0x800006d9   70 g Appl_Memset                                  PMU_PFLASH0     .text         .text                            src\Core\Appl\Appl.o
0x800006da 0x800006e1    8 l Appl_JumpApp                                 PMU_PFLASH0     .text         .text                            src\Core\Appl\Appl.o
0x800006e2 0x80000835  340 l Appl_InitNvmInfo                             PMU_PFLASH0     .text         .text                            src\Core\Appl\Appl.o
0x80000836 0x800008a5  112 l Appl_EcuShutdownTimer                        PMU_PFLASH0     .text         .text                            src\Core\Appl\Appl.o
0x800008a6 0x80000917  114 l Appl_BootStayTimer                           PMU_PFLASH0     .text         .text                            src\Core\Appl\Appl.o
0x80000918 0x80000927   16 l Appl_GotoAppSW                               PMU_PFLASH0     .text         .text                            src\Core\Appl\Appl.o
0x80000928 0x8000093b   20 g Cal_CrcInit                                  PMU_PFLASH0     .text         .text                            src\Core\Cal\Cal.o
0x8000093c 0x800009a9  110 g Cal_CrcCal                                   PMU_PFLASH0     .text         .text                            src\Core\Cal\Cal.o
0x800009aa 0x800009c5   28 g Cal_CrcFinalize                              PMU_PFLASH0     .text         .text                            src\Core\Cal\Cal.o
0x800009c6 0x800009e7   34 g CanIf_Init                                   PMU_PFLASH0     .text         .text                            src\Core\CanIf\CanIf.o
0x800009e8 0x80000aab  196 g CanIf_Transmit                               PMU_PFLASH0     .text         .text                            src\Core\CanIf\CanIf.o
0x80000aac 0x80000b15  106 g CanIf_TxConfirmation                         PMU_PFLASH0     .text         .text                            src\Core\CanIf\CanIf.o
0x80000b16 0x80000bb9  164 g CanIf_RxIndication                           PMU_PFLASH0     .text         .text                            src\Core\CanIf\CanIf.o
0x80000bba 0x80000bc5   12 g CanIf_ControllerBusOff                       PMU_PFLASH0     .text         .text                            src\Core\CanIf\CanIf.o
0x80000bc6 0x80000bd9   20 g CanIf_MainFunction                           PMU_PFLASH0     .text         .text                            src\Core\CanIf\CanIf.o
0x80000bdc 0x80000c11   54 g CanTp_Init                                   PMU_PFLASH0     .text         .text                            src\Core\CanTp\CanTp.o
0x80000c12 0x80000d95  388 g CanTp_RxIndication                           PMU_PFLASH0     .text         .text                            src\Core\CanTp\CanTp.o
0x80000d96 0x80000f09  372 g CanTp_TxConfirmation                         PMU_PFLASH0     .text         .text                            src\Core\CanTp\CanTp.o
0x80000f0a 0x80000f6f  102 g CanTp_Transmit                               PMU_PFLASH0     .text         .text                            src\Core\CanTp\CanTp.o
0x80000f70 0x800011d5  614 g CanTp_MainFunction                           PMU_PFLASH0     .text         .text                            src\Core\CanTp\CanTp.o
0x800011d6 0x80001223   78 l CanTp_FrameAddPadding                        PMU_PFLASH0     .text         .text                            src\Core\CanTp\CanTp.o
0x80001224 0x800012e5  194 l CanTp_ReceiveSingleFrame                     PMU_PFLASH0     .text         .text                            src\Core\CanTp\CanTp.o
0x800012e6 0x800013a7  194 l CanTp_ReceiveFirstFrame                      PMU_PFLASH0     .text         .text                            src\Core\CanTp\CanTp.o
0x800013a8 0x80001557  432 l CanTp_ReceiveConsecutiveFrame                PMU_PFLASH0     .text         .text                            src\Core\CanTp\CanTp.o
0x80001558 0x80001683  300 l CanTp_ReceiveFlowControlFrame                PMU_PFLASH0     .text         .text                            src\Core\CanTp\CanTp.o
0x80001684 0x800016ff  124 l CanTp_Init15765RuntimeData                   PMU_PFLASH0     .text         .text                            src\Core\CanTp\CanTp.o
0x80001700 0x800017fb  252 l CanTp_CopySegmentToRxBuffer                  PMU_PFLASH0     .text         .text                            src\Core\CanTp\CanTp.o
0x800017fc 0x80001913  280 l CanTp_FindTpRxIndicationIndexFromRxChannel   PMU_PFLASH0     .text         .text                            src\Core\CanTp\CanTp.o
0x80001914 0x8000197b  104 l CanTp_FindTpRxIndexFromTxChannel             PMU_PFLASH0     .text         .text                            src\Core\CanTp\CanTp.o
0x8000197c 0x80001bab  560 l CanTp_FindTpListIndexFromRxPdu               PMU_PFLASH0     .text         .text                            src\Core\CanTp\CanTp.o
0x80001bac 0x80001c6b  192 l CanTp_FindTpTxConfirmIndexFromTxChannel      PMU_PFLASH0     .text         .text                            src\Core\CanTp\CanTp.o
0x80001c6c 0x80001d5f  244 l CanTp_FindTpTxConfirmIndexFromRxChannel      PMU_PFLASH0     .text         .text                            src\Core\CanTp\CanTp.o
0x80001d60 0x80001dc5  102 l CanTp_FindTpTxListFromSduId                  PMU_PFLASH0     .text         .text                            src\Core\CanTp\CanTp.o
0x80001dc6 0x80001df7   50 l CanTp_calcTxFrameType                        PMU_PFLASH0     .text         .text                            src\Core\CanTp\CanTp.o
0x80001df8 0x80001ed1  218 l CanTp_SendFlowControlFrame                   PMU_PFLASH0     .text         .text                            src\Core\CanTp\CanTp.o
0x80001ed2 0x80001fc7  246 l CanTp_CopyDataToMsgFromTxBuf                 PMU_PFLASH0     .text         .text                            src\Core\CanTp\CanTp.o
0x80001fc8 0x80002087  192 l CanTp_SendSingleFrame                        PMU_PFLASH0     .text         .text                            src\Core\CanTp\CanTp.o
0x80002088 0x8000219b  276 l CanTp_SendFirstFrame                         PMU_PFLASH0     .text         .text                            src\Core\CanTp\CanTp.o
0x8000219c 0x800022f1  342 l CanTp_SendConsecutiveFrame                   PMU_PFLASH0     .text         .text                            src\Core\CanTp\CanTp.o
0x800022f2 0x8000237d  140 l CanTp_SendTxFrame                            PMU_PFLASH0     .text         .text                            src\Core\CanTp\CanTp.o
0x8000237e 0x800023db   94 l CanTp_WaitSForLastCFBufProcess               PMU_PFLASH0     .text         .text                            src\Core\CanTp\CanTp.o
0x800023dc 0x80002437   92 l CanTp_WaitCFBufProcess                       PMU_PFLASH0     .text         .text                            src\Core\CanTp\CanTp.o
0x80002438 0x8000245d   38 l CanTp_WaitFCTxBufProcess                     PMU_PFLASH0     .text         .text                            src\Core\CanTp\CanTp.o
0x80002460 0x80002483   36 g Dcm_Init                                     PMU_PFLASH0     .text         .text                            src\Core\Dcm\Dcm.o
0x80002484 0x80002515  146 g Dcm_ProgramInit                              PMU_PFLASH0     .text         .text                            src\Core\Dcm\Dcm.o
0x80002516 0x80002521   12 g Dcm_MainFunction                             PMU_PFLASH0     .text         .text                            src\Core\Dcm\Dcm.o
0x80002522 0x800025bf  158 g Dcm_ProvideRxBuffer                          PMU_PFLASH0     .text         .text                            src\Core\Dcm\Dcm.o
0x800025c0 0x80002605   70 g Dcm_RxIndication                             PMU_PFLASH0     .text         .text                            src\Core\Dcm\Dcm.o
0x80002606 0x8000266f  106 g Dcm_ProvideTxBuffer                          PMU_PFLASH0     .text         .text                            src\Core\Dcm\Dcm.o
0x80002670 0x800026ef  128 g Dcm_TxConfirmation                           PMU_PFLASH0     .text         .text                            src\Core\Dcm\Dcm.o
0x800026f0 0x8000279b  172 g Dcm_ServiceFinish                            PMU_PFLASH0     .text         .text                            src\Core\Dcm\Dcm.o
0x8000279c 0x800027d9   62 l Dcm_ClearRxBuff                              PMU_PFLASH0     .text         .text                            src\Core\Dcm\Dcm.o
0x800027da 0x800027f5   28 g Dcm_SetSessionMode                           PMU_PFLASH0     .text         .text                            src\Core\Dcm\Dcm.o
0x800027f6 0x80002807   18 g Dcm_GetSessionMode                           PMU_PFLASH0     .text         .text                            src\Core\Dcm\Dcm.o
0x80002808 0x8000283b   52 g Dcm_CheckSessionSupp                         PMU_PFLASH0     .text         .text                            src\Core\Dcm\Dcm.o
0x8000283c 0x80002877   60 g Dcm_CheckSessionSuppMask                     PMU_PFLASH0     .text         .text                            src\Core\Dcm\Dcm.o
0x80002878 0x800028b3   60 g Dcm_CheckSessionSuppMask_2E                  PMU_PFLASH0     .text         .text                            src\Core\Dcm\Dcm.o
0x800028b4 0x800028cf   28 g Dcm_SetSecurityLevel                         PMU_PFLASH0     .text         .text                            src\Core\Dcm\Dcm.o
0x800028d0 0x800028e1   18 g Dcm_GetSecurityLevel                         PMU_PFLASH0     .text         .text                            src\Core\Dcm\Dcm.o
0x800028e2 0x800028f3   18 g Dcm_GetSecurityTimerExpired                  PMU_PFLASH0     .text         .text                            src\Core\Dcm\Dcm.o
0x800028f4 0x80002927   52 g Dcm_CheckSecuritySupp                        PMU_PFLASH0     .text         .text                            src\Core\Dcm\Dcm.o
0x80002928 0x80002953   44 g Dcm_StartSecurityTimer                       PMU_PFLASH0     .text         .text                            src\Core\Dcm\Dcm.o
0x80002954 0x80002983   48 g Dcm_StartResetTimer                          PMU_PFLASH0     .text         .text                            src\Core\Dcm\Dcm.o
0x80002984 0x800029af   44 g Dcm_SendRsp                                  PMU_PFLASH0     .text         .text                            src\Core\Dcm\Dcm.o
0x800029b0 0x80002a71  194 g Dcm_SendNcr                                  PMU_PFLASH0     .text         .text                            src\Core\Dcm\Dcm.o
0x80002a72 0x80002aaf   62 l Dcm_ServiceStart                             PMU_PFLASH0     .text         .text                            src\Core\Dcm\Dcm.o
0x80002ab0 0x80002c39  394 l Dcm_ServiceHandle                            PMU_PFLASH0     .text         .text                            src\Core\Dcm\Dcm.o
0x80002c3a 0x80002cdd  164 l Dcm_ServiceProcess                           PMU_PFLASH0     .text         .text                            src\Core\Dcm\Dcm.o
0x80002cde 0x80002cf3   22 g Dcm_StartP3cTimer                            PMU_PFLASH0     .text         .text                            src\Core\Dcm\Dcm.o
0x80002cf4 0x80002d07   20 l Dcm_StopP3cTimer                             PMU_PFLASH0     .text         .text                            src\Core\Dcm\Dcm.o
0x80002d08 0x80002d51   74 l Dcm_P3cTimerCheck                            PMU_PFLASH0     .text         .text                            src\Core\Dcm\Dcm.o
0x80002d52 0x80002d83   50 l Dcm_StartP2eTimer                            PMU_PFLASH0     .text         .text                            src\Core\Dcm\Dcm.o
0x80002d84 0x80002d97   20 l Dcm_StopP2eTimer                             PMU_PFLASH0     .text         .text                            src\Core\Dcm\Dcm.o
0x80002d98 0x80002e5f  200 l Dcm_P2eTimerCheck                            PMU_PFLASH0     .text         .text                            src\Core\Dcm\Dcm.o
0x80002e60 0x80002e9d   62 l Dcm_StartTransmit                            PMU_PFLASH0     .text         .text                            src\Core\Dcm\Dcm.o
0x80002e9e 0x80002ecb   46 l Dcm_SecurityTimerCheck                       PMU_PFLASH0     .text         .text                            src\Core\Dcm\Dcm.o
0x80002ecc 0x80002edd   18 l Dcm_StopResetTimer                           PMU_PFLASH0     .text         .text                            src\Core\Dcm\Dcm.o
0x80002ede 0x80002f25   72 l Dcm_ResetTimerCheck                          PMU_PFLASH0     .text         .text                            src\Core\Dcm\Dcm.o
0x80002f26 0x80002f35   16 l Dcm_TimerProc                                PMU_PFLASH0     .text         .text                            src\Core\Dcm\Dcm.o
0x80002f36 0x80002f41   12 g Dcm_ForcePending                             PMU_PFLASH0     .text         .text                            src\Core\Dcm\Dcm.o
0x80002f42 0x80002f81   64 g PosResponse255                               PMU_PFLASH0     .text         .text                            src\Core\Dcm\Dcm.o
0x80002f82 0x80002fcb   74 g Dcm_DspInit                                  PMU_PFLASH0     .text         .text                            src\Core\Dcm\Dcm_Dsp.o
0x80002fcc 0x800032c1  758 g Dcm_RecvMsg10                                PMU_PFLASH0     .text         .text                            src\Core\Dcm\Dcm_Dsp.o
0x800032c2 0x80003427  358 g Dcm_RecvMsg11                                PMU_PFLASH0     .text         .text                            src\Core\Dcm\Dcm_Dsp.o
0x80003428 0x8000359d  374 g Dcm_RecvMsg22                                PMU_PFLASH0     .text         .text                            src\Core\Dcm\Dcm_Dsp.o
0x8000359e 0x80003727  394 g Dcm_RecvMsg2E                                PMU_PFLASH0     .text         .text                            src\Core\Dcm\Dcm_Dsp.o
0x80003728 0x8000389d  374 g Dcm_RecvMsg27                                PMU_PFLASH0     .text         .text                            src\Core\Dcm\Dcm_Dsp.o
0x8000389e 0x80003a41  420 g Dcm_RecvMsg28                                PMU_PFLASH0     .text         .text                            src\Core\Dcm\Dcm_Dsp.o
0x80003a42 0x80003c05  452 g Dcm_RecvMsg34                                PMU_PFLASH0     .text         .text                            src\Core\Dcm\Dcm_Dsp.o
0x80003c06 0x80003dc5  448 g Dcm_RecvMsg36                                PMU_PFLASH0     .text         .text                            src\Core\Dcm\Dcm_Dsp.o
0x80003dc6 0x80003e3f  122 g Dcm_RecvMsg37                                PMU_PFLASH0     .text         .text                            src\Core\Dcm\Dcm_Dsp.o
0x80003e40 0x80004041  514 g Dcm_RecvMsg31                                PMU_PFLASH0     .text         .text                            src\Core\Dcm\Dcm_Dsp.o
0x80004042 0x800040b5  116 g Dcm_CheckProgPreCondition                    PMU_PFLASH0     .text         .text                            src\Core\Dcm\Dcm_Dsp.o
0x800040b6 0x80004117   98 g Dcm_CheckProgDependencies                    PMU_PFLASH0     .text         .text                            src\Core\Dcm\Dcm_Dsp.o
0x80004118 0x8000416b   84 g Dcm_CheckMemory                              PMU_PFLASH0     .text         .text                            src\Core\Dcm\Dcm_Dsp.o
0x8000416c 0x80004297  300 g Dcm_EraseMemory                              PMU_PFLASH0     .text         .text                            src\Core\Dcm\Dcm_Dsp.o
0x80004298 0x800043b3  284 g Dcm_RecvMsg3E                                PMU_PFLASH0     .text         .text                            src\Core\Dcm\Dcm_Dsp.o
0x800043b4 0x800044f7  324 g Dcm_RecvMsg85                                PMU_PFLASH0     .text         .text                            src\Core\Dcm\Dcm_Dsp.o
0x800044f8 0x8000456d  118 g Dcm_Pending2E                                PMU_PFLASH0     .text         .text                            src\Core\Dcm\Dcm_Dsp.o
0x8000456e 0x800045c9   92 g Dcm_Pending36                                PMU_PFLASH0     .text         .text                            src\Core\Dcm\Dcm_Dsp.o
0x800045ca 0x80004671  168 g Dcm_Pending31                                PMU_PFLASH0     .text         .text                            src\Core\Dcm\Dcm_Dsp.o
0x80004672 0x8000469f   46 l Dcm_ConvertAddress                           PMU_PFLASH0     .text         .text                            src\Core\Dcm\Dcm_Dsp.o
0x800046a0 0x80004703  100 l Dcm_Get4Byte                                 PMU_PFLASH0     .text         .text                            src\Core\Dcm\Dcm_Dsp.o
0x80004704 0x80004761   94 l Dcm_Set4Byte                                 PMU_PFLASH0     .text         .text                            src\Core\Dcm\Dcm_Dsp.o
0x80004762 0x80004791   48 l Dcm_CheckSubFuncSession                      PMU_PFLASH0     .text         .text                            src\Core\Dcm\Dcm_Dsp.o
0x80004792 0x800047c1   48 l Dcm_CheckRoutineIDSession                    PMU_PFLASH0     .text         .text                            src\Core\Dcm\Dcm_Dsp.o
0x800047c2 0x800047f9   56 l Dcm_CheckMsgLength                           PMU_PFLASH0     .text         .text                            src\Core\Dcm\Dcm_Dsp.o
0x800047fa 0x80004829   48 l Dcm_CheckSecurityCondition                   PMU_PFLASH0     .text         .text                            src\Core\Dcm\Dcm_Dsp.o
0x8000482a 0x800048b9  144 l Dcm_CheckSubFuncFind                         PMU_PFLASH0     .text         .text                            src\Core\Dcm\Dcm_Dsp.o
0x800048ba 0x800048ef   54 l Dcm_SessionChangeConditionCheck              PMU_PFLASH0     .text         .text                            src\Core\Dcm\Dcm_Dsp.o
0x800048f0 0x8000490d   30 l Dcm_ConditionCheck                           PMU_PFLASH0     .text         .text                            src\Core\Dcm\Dcm_Dsp.o
0x8000490e 0x8000492d   32 l Dcm_HighVoltageCheck                         PMU_PFLASH0     .text         .text                            src\Core\Dcm\Dcm_Dsp.o
0x8000492e 0x8000494d   32 l Dcm_LowVoltageCheck                          PMU_PFLASH0     .text         .text                            src\Core\Dcm\Dcm_Dsp.o
0x8000494e 0x8000496d   32 l Dcm_CheckReqOutOfRange                       PMU_PFLASH0     .text         .text                            src\Core\Dcm\Dcm_Dsp.o
0x8000496e 0x80004ad9  364 l Dcm_RequestSeed                              PMU_PFLASH0     .text         .text                            src\Core\Dcm\Dcm_Dsp.o
0x80004ada 0x80004c25  332 l Dcm_SendKey                                  PMU_PFLASH0     .text         .text                            src\Core\Dcm\Dcm_Dsp.o
0x80004c26 0x80004cb3  142 g FL_InitState                                 PMU_PFLASH0     .text         .text                            src\Core\Fl\FL.o
0x80004cb4 0x80004cd7   36 g FL_ReadProgCounter                           PMU_PFLASH0     .text         .text                            src\Core\Fl\FL.o
0x80004cd8 0x80004cfb   36 g FL_ReadProgAttemptCounter                    PMU_PFLASH0     .text         .text                            src\Core\Fl\FL.o
0x80004cfc 0x80004d5f  100 g FL_ReadBootSWReferenceNumber                 PMU_PFLASH0     .text         .text                            src\Core\Fl\FL.o
0x80004d60 0x80004e1b  188 g FL_ReadFingerPrint                           PMU_PFLASH0     .text         .text                            src\Core\Fl\FL.o
0x80004e1c 0x80004e81  102 g FL_ReadSysECUHWVer                           PMU_PFLASH0     .text         .text                            src\Core\Fl\FL.o
0x80004e82 0x80004fa9  296 g FL_ReadMemory                                PMU_PFLASH0     .text         .text                            src\Core\Fl\FL.o
0x80004faa 0x80004fc1   24 g FL_CheckProgPreCondition                     PMU_PFLASH0     .text         .text                            src\Core\Fl\FL.o
0x80004fc2 0x8000501b   90 g FL_WriteRepairShopCode                       PMU_PFLASH0     .text         .text                            src\Core\Fl\FL.o
0x8000501c 0x80005099  126 g FL_WriteFingerPrint                          PMU_PFLASH0     .text         .text                            src\Core\Fl\FL.o
0x8000509a 0x80005113  122 g FL_CheckSumRoutine                           PMU_PFLASH0     .text         .text                            src\Core\Fl\FL.o
0x80005114 0x800052c3  432 g FL_EraseRoutine                              PMU_PFLASH0     .text         .text                            src\Core\Fl\FL.o
0x800052c4 0x80005435  370 g FL_DownloadRequestValid                      PMU_PFLASH0     .text         .text                            src\Core\Fl\FL.o
0x80005436 0x80005581  332 g FL_FlashProgramRegion                        PMU_PFLASH0     .text         .text                            src\Core\Fl\FL.o
0x80005582 0x800055cf   78 g FL_ExitTransferData                          PMU_PFLASH0     .text         .text                            src\Core\Fl\FL.o
0x800055d0 0x8000562f   96 g FL_ServiceFinished                           PMU_PFLASH0     .text         .text                            src\Core\Fl\FL.o
0x80005630 0x800056a7  120 g FL_MainFunction                              PMU_PFLASH0     .text         .text                            src\Core\Fl\FL.o
0x800056a8 0x800057cd  294 l FL_UpdateNvm                                 PMU_PFLASH0     .text         .text                            src\Core\Fl\FL.o
0x800057ce 0x80005acd  768 l FL_Erasing                                   PMU_PFLASH0     .text         .text                            src\Core\Fl\FL.o
0x80005ace 0x80005c6f  418 l FL_CheckDownloadSegment                      PMU_PFLASH0     .text         .text                            src\Core\Fl\FL.o
0x80005c70 0x80005d49  218 l FL_DownloadRemainData                        PMU_PFLASH0     .text         .text                            src\Core\Fl\FL.o
0x80005d4a 0x80005e6d  292 l FL_HandleRemainData                          PMU_PFLASH0     .text         .text                            src\Core\Fl\FL.o
0x80005e6e 0x8000613b  718 l FL_ProgrammingData                           PMU_PFLASH0     .text         .text                            src\Core\Fl\FL.o
0x8000613c 0x8000617b   64 l FL_Programming                               PMU_PFLASH0     .text         .text                            src\Core\Fl\FL.o
0x8000617c 0x800062d1  342 l FL_CheckSuming                               PMU_PFLASH0     .text         .text                            src\Core\Fl\FL.o
0x800062d2 0x80006385  180 g FL_updateProgCnt                             PMU_PFLASH0     .text         .text                            src\Core\Fl\FL.o
0x80006386 0x80006399   20 g Fl_GetActiveJob                              PMU_PFLASH0     .text         .text                            src\Core\Fl\FL.o
0x8000639a 0x800063f3   90 g SecM_GenerateSeed                            PMU_PFLASH0     .text         .text                            src\Core\SecM\SecM.o
0x800063f4 0x80006443   80 g SecM_ComputeKey                              PMU_PFLASH0     .text         .text                            src\Core\SecM\SecM.o
0x80006444 0x80006479   54 g SecM_CompareKey                              PMU_PFLASH0     .text         .text                            src\Core\SecM\SecM.o
0x8000647a 0x800064df  102 g SecM_ComputeCRC                              PMU_PFLASH0     .text         .text                            src\Core\SecM\SecM.o
0x800064e0 0x8000662d  334 g SecM_Verification                            PMU_PFLASH0     .text         .text                            src\Core\SecM\SecM.o
0x8000662e 0x800066e7  186 l SecM_ProcessCrc                              PMU_PFLASH0     .text         .text                            src\Core\SecM\SecM.o
0x800066e8 0x80006851  362 g Can_Init                                     PMU_PFLASH0     .text         .text                            src\Driver\Can\Can.o
0x80006852 0x80006887   54 g Can_InitController                           PMU_PFLASH0     .text         .text                            src\Driver\Can\Can.o
0x80006888 0x8000691f  152 g Can_SetControllerMode                        PMU_PFLASH0     .text         .text                            src\Driver\Can\Can.o
0x80006920 0x80006963   68 g Can_DisableControllerInterrupts              PMU_PFLASH0     .text         .text                            src\Driver\Can\Can.o
0x80006964 0x800069f5  146 g Can_EnableControllerInterrupts               PMU_PFLASH0     .text         .text                            src\Driver\Can\Can.o
0x800069f6 0x80006a8f  154 g Can_Write                                    PMU_PFLASH0     .text         .text                            src\Driver\Can\Can.o
0x80006a90 0x80006aa7   24 g Can_Cbk_CheckWakeup                          PMU_PFLASH0     .text         .text                            src\Driver\Can\Can.o
0x80006aa8 0x80006b01   90 g Can_MainFunction_Write                       PMU_PFLASH0     .text         .text                            src\Driver\Can\Can.o
0x80006b02 0x80006b5b   90 g Can_MainFunction_Read                        PMU_PFLASH0     .text         .text                            src\Driver\Can\Can.o
0x80006b5c 0x80006bd7  124 g Can_MainFunction_BusOff                      PMU_PFLASH0     .text         .text                            src\Driver\Can\Can.o
0x80006bd8 0x80006bdb    4 g Can_MainFunction_Wakeup                      PMU_PFLASH0     .text         .text                            src\Driver\Can\Can.o
0x80006bdc 0x80006c6b  144 l Can_BusOff_Handler                           PMU_PFLASH0     .text         .text                            src\Driver\Can\Can.o
0x80006c6c 0x80006d9b  304 l Can_TxProcess                                PMU_PFLASH0     .text         .text                            src\Driver\Can\Can.o
0x80006d9c 0x80006fb5  538 l Can_RxProcess                                PMU_PFLASH0     .text         .text                            src\Driver\Can\Can.o
0x80006fb6 0x8000707d  200 l Can_StartMode                                PMU_PFLASH0     .text         .text                            src\Driver\Can\Can.o
0x8000707e 0x80007129  172 l Can_StopMode                                 PMU_PFLASH0     .text         .text                            src\Driver\Can\Can.o
0x8000712a 0x80007187   94 l Can_SleepMode                                PMU_PFLASH0     .text         .text                            src\Driver\Can\Can.o
0x80007188 0x80007205  126 l Can_InitHwCntrl                              PMU_PFLASH0     .text         .text                            src\Driver\Can\Can.o
0x80007206 0x80007587  898 l Can_InitMB                                   PMU_PFLASH0     .text         .text                            src\Driver\Can\Can.o
0x80007588 0x800076d9  338 l Can_DeInitMB                                 PMU_PFLASH0     .text         .text                            src\Driver\Can\Can.o
0x800076da 0x80007715   60 l Can_IsTxMbFree                               PMU_PFLASH0     .text         .text                            src\Driver\Can\Can.o
0x80007716 0x800078ed  472 l Can_WriteMb                                  PMU_PFLASH0     .text         .text                            src\Driver\Can\Can.o
0x800078ee 0x80007a43  342 l Can_GetMBInfo                                PMU_PFLASH0     .text         .text                            src\Driver\Can\Can.o
0x80007a44 0x80007ca5  610 l Can_StartStateEnableInt                      PMU_PFLASH0     .text         .text                            src\Driver\Can\Can.o
0x80007ca6 0x80007e55  432 l Can_DisableInt                               PMU_PFLASH0     .text         .text                            src\Driver\Can\Can.o
0x80007e56 0x80007ee7  146 l Can_ResetPnd                                 PMU_PFLASH0     .text         .text                            src\Driver\Can\Can.o
0x80007ee8 0x80007f25   62 l Can_WakeupMode                               PMU_PFLASH0     .text         .text                            src\Driver\Can\Can.o
0x80007f26 0x80008031  268 l Can_InitPort                                 PMU_PFLASH0     .text         .text                            src\Driver\Can\Can.o
0x80008032 0x8000812b  250 g Can_Deinit                                   PMU_PFLASH0     .text         .text                            src\Driver\Can\Can.o
0x8000812c 0x8000815f   52 g FlashReadByte                                PMU_PFLASH0     .text         .text                            src\Driver\Fls\Fls.o
0x80008160 0x800081a9   74 g FlashReadMemory                              PMU_PFLASH0     .text         .text                            src\Driver\Fls\Fls.o
0x800081aa 0x80008299  240 g Mcu_Init                                     PMU_PFLASH0     .text         .text                            src\Driver\MCU\Mcu.o
0x8000829a 0x8000830f  118 g Mcu_DeInit                                   PMU_PFLASH0     .text         .text                            src\Driver\MCU\Mcu.o
0x80008310 0x80008325   22 g Mcu_InitRamSection                           PMU_PFLASH0     .text         .text                            src\Driver\MCU\Mcu.o
0x80008326 0x8000898d 1640 g Mcu_InitClock                                PMU_PFLASH0     .text         .text                            src\Driver\MCU\Mcu.o
0x8000898e 0x80008ccb  830 g Mcu_DistributePllClock                       PMU_PFLASH0     .text         .text                            src\Driver\MCU\Mcu.o
0x80008ccc 0x80008ced   34 g Mcu_GetPllStatus                             PMU_PFLASH0     .text         .text                            src\Driver\MCU\Mcu.o
0x80008cee 0x80008d21   52 g Mcu_GetResetReason                           PMU_PFLASH0     .text         .text                            src\Driver\MCU\Mcu.o
0x80008d22 0x80008d3d   28 g Mcu_GetResetRawValue                         PMU_PFLASH0     .text         .text                            src\Driver\MCU\Mcu.o
0x80008d3e 0x80008d8f   82 g Mcu_PerformReset                             PMU_PFLASH0     .text         .text                            src\Driver\MCU\Mcu.o
0x80008d90 0x80008dd1   66 g Mcu_SetMode                                  PMU_PFLASH0     .text         .text                            src\Driver\MCU\Mcu.o
0x80008dd2 0x800090b3  738 l Mcu_lSwitchToBackupClock                     PMU_PFLASH0     .text         .text                            src\Driver\MCU\Mcu.o
0x800090b4 0x800090fb   72 g Mcu_lDmaInit                                 PMU_PFLASH0     .text         .text                            src\Driver\MCU\Mcu_Dma.o
0x800090fc 0x80009117   28 g Mcu_lDmaDeInit                               PMU_PFLASH0     .text         .text                            src\Driver\MCU\Mcu_Dma.o
0x80009118 0x8000939f  648 g Mcu_lPlatformInit                            PMU_PFLASH0     .text         .text                            src\Driver\MCU\Mcu_Platform.o
0x800093a0 0x800093d9   58 l Mcu_lFindResetReason                         PMU_PFLASH0     .text         .text                            src\Driver\MCU\Mcu_Platform.o
0x800093da 0x80009531  344 g Mcu_lGetPlatformRstReason                    PMU_PFLASH0     .text         .text                            src\Driver\MCU\Mcu_Platform.o
0x80009532 0x800097a1  624 l Mcu_lErayPllClockInit                        PMU_PFLASH0     .text         .text                            src\Driver\MCU\Mcu_Platform.o
0x800097a2 0x800097e7   70 l Mcu_lErayPllWaitVcoLock                      PMU_PFLASH0     .text         .text                            src\Driver\MCU\Mcu_Platform.o
0x800097e8 0x8000984f  104 l Mcu_lHandleStandbyRAM                        PMU_PFLASH0     .text         .text                            src\Driver\MCU\Mcu_Platform.o
0x80009850 0x800098c5  118 g Mcu_lSetIdleMode                             PMU_PFLASH0     .text         .text                            src\Driver\MCU\Mcu_Platform.o
0x800098c6 0x8000993b  118 g Mcu_lSetSleepMode                            PMU_PFLASH0     .text         .text                            src\Driver\MCU\Mcu_Platform.o
0x8000993c 0x80009c9f  868 g Mcu_lSetStandbyMode                          PMU_PFLASH0     .text         .text                            src\Driver\MCU\Mcu_Platform.o
0x80009ca0 0x80009d6b  204 g STM_Init                                     PMU_PFLASH0     .text         .text                            src\Driver\Stm\STM.o
0x80009d6c 0x80009dc3   88 g STM_Deinit                                   PMU_PFLASH0     .text         .text                            src\Driver\Stm\STM.o
0x80009dc4 0x80009e61  158 g STM_GetFlag                                  PMU_PFLASH0     .text         .text                            src\Driver\Stm\STM.o
0x80009e62 0x80009f01  160 g ScuWdt_ClearCpuEndinit                       PMU_PFLASH0     .text         .text                            src\Driver\Wdg\Wdg.o
0x80009f02 0x80009fa1  160 g ScuWdt_setCpuEndinit                         PMU_PFLASH0     .text         .text                            src\Driver\Wdg\Wdg.o
0x80009fa2 0x8000a085  228 g ScuWdt_initCpuWatchdog                       PMU_PFLASH0     .text         .text                            src\Driver\Wdg\Wdg.o
0x8000a086 0x8000a091   12 g Wdg_Start                                    PMU_PFLASH0     .text         .text                            src\Driver\Wdg\Wdg.o
0x8000a092 0x8000a0bf   46 g Wdg_Stop                                     PMU_PFLASH0     .text         .text                            src\Driver\Wdg\Wdg.o
0x8000a0c0 0x8000a0c9   10 g Wdg_Kick                                     PMU_PFLASH0     .text         .text                            src\Driver\Wdg\Wdg.o
0x8000a0ca 0x8000a0d1    8 g Wdg_SystemReset                              PMU_PFLASH0     .text         .text                            src\Driver\Wdg\Wdg.o
0x8000a0d2 0x8000a0f5   36 g Mcal_SafeErrorHandler                        PMU_PFLASH0     .text         .text                            src\Driver\includes\Mcal.o
0x8000a0f8 0x8000a147   80 g Mcal_DmaEnableIntr                           PMU_PFLASH0     .text         .text                            src\Driver\includes\Mcal_DmaLib.o
0x8000a148 0x8000a1c3  124 g Mcal_DmaDisableIntr                          PMU_PFLASH0     .text         .text                            src\Driver\includes\Mcal_DmaLib.o
0x8000a1c4 0x8000a2c7  260 g Mcal_DmaCfgNoOfMovesPerTransfer              PMU_PFLASH0     .text         .text                            src\Driver\includes\Mcal_DmaLib.o
0x8000a2c8 0x8000a319   82 g cmpswap_w                                    PMU_PFLASH0     .text         .text                            src\Driver\includes\Mcal_TcLib.o
0x8000a31a 0x8000a335   28 g Mcal_GetCoreId                               PMU_PFLASH0     .text         .text                            src\Driver\includes\Mcal_TcLib.o
0x8000a336 0x8000a407  210 g Mcal_GetDsprReMapAddress                     PMU_PFLASH0     .text         .text                            src\Driver\includes\Mcal_TcLib.o
0x8000a408 0x8000a431   42 l Mcal_GetCpuAddress                           PMU_PFLASH0     .text         .text                            src\Driver\includes\Mcal_TcLib.o
0x8000a432 0x8000a469   56 g Mcal_SetCpuPC                                PMU_PFLASH0     .text         .text                            src\Driver\includes\Mcal_TcLib.o
0x8000a46a 0x8000a4cf  102 g Mcal_StartCore                               PMU_PFLASH0     .text         .text                            src\Driver\includes\Mcal_TcLib.o
0x8000a4d0 0x8000a4fd   46 g Mcal_LockResource                            PMU_PFLASH0     .text         .text                            src\Driver\includes\Mcal_TcLib.o
0x8000a4fe 0x8000a517   26 g Mcal_UnlockResource                          PMU_PFLASH0     .text         .text                            src\Driver\includes\Mcal_TcLib.o
0x8000a518 0x8000a573   92 g Mcal_GetSpinLock                             PMU_PFLASH0     .text         .text                            src\Driver\includes\Mcal_TcLib.o
0x8000a574 0x8000a58d   26 g Mcal_ReleaseSpinLock                         PMU_PFLASH0     .text         .text                            src\Driver\includes\Mcal_TcLib.o
0x8000a58e 0x8000a68f  258 g Mcal_SuspendAllInterrupts                    PMU_PFLASH0     .text         .text                            src\Driver\includes\Mcal_TcLib.o
0x8000a690 0x8000a783  244 g Mcal_ResumeAllInterrupts                     PMU_PFLASH0     .text         .text                            src\Driver\includes\Mcal_TcLib.o
0x8000a784 0x8000a7b7   52 g Mcal_UpdateRegSV                             PMU_PFLASH0     .text         .text                            src\Driver\includes\Mcal_TcLib.o
0x8000a7b8 0x8000a857  160 g Mcal_SetRegValSV                             PMU_PFLASH0     .text         .text                            src\Driver\includes\Mcal_TcLib.o
0x8000a858 0x8000a90d  182 l Mcal_lCpuPwSequence                          PMU_PFLASH0     .text         .text                            src\Driver\includes\Mcal_WdgLib.o
0x8000a90e 0x8000a975  104 l Mcal_lCpuRelValue                            PMU_PFLASH0     .text         .text                            src\Driver\includes\Mcal_WdgLib.o
0x8000a976 0x8000aa99  292 g Mcal_ResetCpuENDINIT                         PMU_PFLASH0     .text         .text                            src\Driver\includes\Mcal_WdgLib.o
0x8000aa9a 0x8000abe9  336 g Mcal_SetCpuENDINIT                           PMU_PFLASH0     .text         .text                            src\Driver\includes\Mcal_WdgLib.o
0x8000abea 0x8000ad45  348 l Mcal_lCpuModifyAccess                        PMU_PFLASH0     .text         .text                            src\Driver\includes\Mcal_WdgLib.o
0x8000ad46 0x8000ade9  164 l Mcal_lCpuCheckAccess                         PMU_PFLASH0     .text         .text                            src\Driver\includes\Mcal_WdgLib.o
0x8000adea 0x8000aeb1  200 g Mcal_ResetENDINIT                            PMU_PFLASH0     .text         .text                            src\Driver\includes\Mcal_WdgLib.o
0x8000aeb2 0x8000af23  114 l Mcal_lResetSafetyENDINIT                     PMU_PFLASH0     .text         .text                            src\Driver\includes\Mcal_WdgLib.o
0x8000af24 0x8000b011  238 g Mcal_SetENDINIT                              PMU_PFLASH0     .text         .text                            src\Driver\includes\Mcal_WdgLib.o
0x8000b012 0x8000b091  128 l Mcal_lSetSafetyENDINIT                       PMU_PFLASH0     .text         .text                            src\Driver\includes\Mcal_WdgLib.o
0x8000b092 0x8000b101  112 g Mcal_ResetSafetyENDINIT_Timed                PMU_PFLASH0     .text         .text                            src\Driver\includes\Mcal_WdgLib.o
0x8000b102 0x8000b153   82 g Mcal_SetSafetyENDINIT_Timed                  PMU_PFLASH0     .text         .text                            src\Driver\includes\Mcal_WdgLib.o
0x8000b154 0x8000b16f   28 g Mcal_SafetyModifyAccess                      PMU_PFLASH0     .text         .text                            src\Driver\includes\Mcal_WdgLib.o
0x8000b170 0x8000b1a3   52 g Mcal_CpuWdtModifyAccess                      PMU_PFLASH0     .text         .text                            src\Driver\includes\Mcal_WdgLib.o
0x8000b1a4 0x8000b1bf   28 g Mcal_SafetyCheckAccess                       PMU_PFLASH0     .text         .text                            src\Driver\includes\Mcal_WdgLib.o
0x8000b1c0 0x8000b1f3   52 g Mcal_CpuWdtCheckAccess                       PMU_PFLASH0     .text         .text                            src\Driver\includes\Mcal_WdgLib.o
0x8000b1f4 0x8000b20b   24 g Mcal_SafetyPwSequence                        PMU_PFLASH0     .text         .text                            src\Driver\includes\Mcal_WdgLib.o
0x8000b20c 0x8000b23b   48 g Mcal_CpuWdtPwSequence                        PMU_PFLASH0     .text         .text                            src\Driver\includes\Mcal_WdgLib.o
0x8000b23c 0x8000b23f    4 g SchM_Enter_Adc_StartGroup                    PMU_PFLASH0     .text         .text                            src\Driver\includes\SchM.o
0x8000b240 0x8000b243    4 g SchM_Enter_Adc_StopGroup                     PMU_PFLASH0     .text         .text                            src\Driver\includes\SchM.o
0x8000b244 0x8000b247    4 g SchM_Enter_Adc_ReadGroup                     PMU_PFLASH0     .text         .text                            src\Driver\includes\SchM.o
0x8000b248 0x8000b24b    4 g SchM_Enter_Adc_EnableHwTrig                  PMU_PFLASH0     .text         .text                            src\Driver\includes\SchM.o
0x8000b24c 0x8000b24f    4 g SchM_Enter_Adc_DisableHwTrig                 PMU_PFLASH0     .text         .text                            src\Driver\includes\SchM.o
0x8000b250 0x8000b253    4 g SchM_Enter_Adc_GetGrpStatus                  PMU_PFLASH0     .text         .text                            src\Driver\includes\SchM.o
0x8000b254 0x8000b257    4 g SchM_Enter_Adc_GetStreamLastPtr              PMU_PFLASH0     .text         .text                            src\Driver\includes\SchM.o
0x8000b258 0x8000b25b    4 g SchM_Enter_Adc_ScheduleStart                 PMU_PFLASH0     .text         .text                            src\Driver\includes\SchM.o
0x8000b25c 0x8000b25f    4 g SchM_Enter_Adc_ScheduleStop                  PMU_PFLASH0     .text         .text                            src\Driver\includes\SchM.o
0x8000b260 0x8000b263    4 g SchM_Enter_Adc_ScheduleNext                  PMU_PFLASH0     .text         .text                            src\Driver\includes\SchM.o
0x8000b264 0x8000b267    4 g SchM_Enter_Adc_PushQueue                     PMU_PFLASH0     .text         .text                            src\Driver\includes\SchM.o
0x8000b268 0x8000b26b    4 g SchM_Enter_Adc_PopQueue                      PMU_PFLASH0     .text         .text                            src\Driver\includes\SchM.o
0x8000b26c 0x8000b26f    4 g SchM_Exit_Adc_StartGroup                     PMU_PFLASH0     .text         .text                            src\Driver\includes\SchM.o
0x8000b270 0x8000b273    4 g SchM_Exit_Adc_StopGroup                      PMU_PFLASH0     .text         .text                            src\Driver\includes\SchM.o
0x8000b274 0x8000b277    4 g SchM_Exit_Adc_ReadGroup                      PMU_PFLASH0     .text         .text                            src\Driver\includes\SchM.o
0x8000b278 0x8000b27b    4 g SchM_Exit_Adc_EnableHwTrig                   PMU_PFLASH0     .text         .text                            src\Driver\includes\SchM.o
0x8000b27c 0x8000b27f    4 g SchM_Exit_Adc_DisableHwTrig                  PMU_PFLASH0     .text         .text                            src\Driver\includes\SchM.o
0x8000b280 0x8000b283    4 g SchM_Exit_Adc_GetGrpStatus                   PMU_PFLASH0     .text         .text                            src\Driver\includes\SchM.o
0x8000b284 0x8000b287    4 g SchM_Exit_Adc_GetStreamLastPtr               PMU_PFLASH0     .text         .text                            src\Driver\includes\SchM.o
0x8000b288 0x8000b28b    4 g SchM_Exit_Adc_ScheduleStart                  PMU_PFLASH0     .text         .text                            src\Driver\includes\SchM.o
0x8000b28c 0x8000b28f    4 g SchM_Exit_Adc_ScheduleStop                   PMU_PFLASH0     .text         .text                            src\Driver\includes\SchM.o
0x8000b290 0x8000b293    4 g SchM_Exit_Adc_ScheduleNext                   PMU_PFLASH0     .text         .text                            src\Driver\includes\SchM.o
0x8000b294 0x8000b297    4 g SchM_Exit_Adc_PushQueue                      PMU_PFLASH0     .text         .text                            src\Driver\includes\SchM.o
0x8000b298 0x8000b29b    4 g SchM_Exit_Adc_PopQueue                       PMU_PFLASH0     .text         .text                            src\Driver\includes\SchM.o
0x8000b29c 0x8000b29f    4 g SchM_Enter_Icu_17_GtmCcu6_EnableWakeup       PMU_PFLASH0     .text         .text                            src\Driver\includes\SchM.o
0x8000b2a0 0x8000b2a3    4 g SchM_Exit_Icu_17_GtmCcu6_EnableWakeup        PMU_PFLASH0     .text         .text                            src\Driver\includes\SchM.o
0x8000b2a4 0x8000b2a7    4 g SchM_Enter_Icu_17_GtmCcu6_EnableNotification PMU_PFLASH0     .text         .text                            src\Driver\includes\SchM.o
0x8000b2a8 0x8000b2ab    4 g SchM_Exit_Icu_17_GtmCcu6_EnableNotification  PMU_PFLASH0     .text         .text                            src\Driver\includes\SchM.o
0x8000b2ac 0x8000b2af    4 g SchM_Enter_Icu_17_GtmCcu6_ResetEdgeCount     PMU_PFLASH0     .text         .text                            src\Driver\includes\SchM.o
0x8000b2b0 0x8000b2b3    4 g SchM_Exit_Icu_17_GtmCcu6_ResetEdgeCount      PMU_PFLASH0     .text         .text                            src\Driver\includes\SchM.o
0x8000b2b4 0x8000b2b7    4 g SchM_Enter_Icu_17_GtmCcu6_Ccu6IenUpdate      PMU_PFLASH0     .text         .text                            src\Driver\includes\SchM.o
0x8000b2b8 0x8000b2bb    4 g SchM_Exit_Icu_17_GtmCcu6_Ccu6IenUpdate       PMU_PFLASH0     .text         .text                            src\Driver\includes\SchM.o
0x8000b2bc 0x8000b2bf    4 g SchM_Enter_Icu_17_GtmCcu6_CcuInterruptHandle PMU_PFLASH0     .text         .text                            src\Driver\includes\SchM.o
0x8000b2c0 0x8000b2c3    4 g SchM_Exit_Icu_17_GtmCcu6_CcuInterruptHandle  PMU_PFLASH0     .text         .text                            src\Driver\includes\SchM.o
0x8000b2c4 0x8000b2c7    4 g SchM_Enter_Icu_17_GtmCcu6_CcuVariableupdate  PMU_PFLASH0     .text         .text                            src\Driver\includes\SchM.o
0x8000b2c8 0x8000b2cb    4 g SchM_Exit_Icu_17_GtmCcu6_CcuVariableupdate   PMU_PFLASH0     .text         .text                            src\Driver\includes\SchM.o
0x8000b2cc 0x8000b2cf    4 g SchM_Enter_Can_17_MCanP_CanDisInt            PMU_PFLASH0     .text         .text                            src\Driver\includes\SchM.o
0x8000b2d0 0x8000b2d3    4 g SchM_Exit_Can_17_MCanP_CanDisInt             PMU_PFLASH0     .text         .text                            src\Driver\includes\SchM.o
0x8000b2d4 0x8000b2d7    4 g SchM_Enter_Can_17_MCanP_CanEnInt             PMU_PFLASH0     .text         .text                            src\Driver\includes\SchM.o
0x8000b2d8 0x8000b2db    4 g SchM_Exit_Can_17_MCanP_CanEnInt              PMU_PFLASH0     .text         .text                            src\Driver\includes\SchM.o
0x8000b2dc 0x8000b2df    4 g SchM_Enter_Can_17_MCanP_CanWrMO              PMU_PFLASH0     .text         .text                            src\Driver\includes\SchM.o
0x8000b2e0 0x8000b2e3    4 g SchM_Exit_Can_17_MCanP_CanWrMO               PMU_PFLASH0     .text         .text                            src\Driver\includes\SchM.o
0x8000b2e4 0x8000b2e7    4 g SchM_Enter_Fr_17_Eray_ControllerInit         PMU_PFLASH0     .text         .text                            src\Driver\includes\SchM.o
0x8000b2e8 0x8000b2eb    4 g SchM_Exit_Fr_17_Eray_ControllerInit          PMU_PFLASH0     .text         .text                            src\Driver\includes\SchM.o
0x8000b2ec 0x8000b2ef    4 g SchM_Enter_Fr_17_Eray_SetWakeupChannel       PMU_PFLASH0     .text         .text                            src\Driver\includes\SchM.o
0x8000b2f0 0x8000b2f3    4 g SchM_Exit_Fr_17_Eray_SetWakeupChannel        PMU_PFLASH0     .text         .text                            src\Driver\includes\SchM.o
0x8000b2f4 0x8000b2f7    4 g SchM_Enter_Spi_WriteIB                       PMU_PFLASH0     .text         .text                            src\Driver\includes\SchM.o
0x8000b2f8 0x8000b2fb    4 g SchM_Exit_Spi_WriteIB                        PMU_PFLASH0     .text         .text                            src\Driver\includes\SchM.o
0x8000b2fc 0x8000b2ff    4 g SchM_Enter_Spi_AsyncTransmit                 PMU_PFLASH0     .text         .text                            src\Driver\includes\SchM.o
0x8000b300 0x8000b303    4 g SchM_Exit_Spi_AsyncTransmit                  PMU_PFLASH0     .text         .text                            src\Driver\includes\SchM.o
0x8000b304 0x8000b307    4 g SchM_Enter_Spi_GetSequenceResult             PMU_PFLASH0     .text         .text                            src\Driver\includes\SchM.o
0x8000b308 0x8000b30b    4 g SchM_Exit_Spi_GetSequenceResult              PMU_PFLASH0     .text         .text                            src\Driver\includes\SchM.o
0x8000b30c 0x8000b30f    4 g SchM_Enter_Spi_Cancel                        PMU_PFLASH0     .text         .text                            src\Driver\includes\SchM.o
0x8000b310 0x8000b313    4 g SchM_Exit_Spi_Cancel                         PMU_PFLASH0     .text         .text                            src\Driver\includes\SchM.o
0x8000b314 0x8000b317    4 g SchM_Enter_Spi_Init                          PMU_PFLASH0     .text         .text                            src\Driver\includes\SchM.o
0x8000b318 0x8000b31b    4 g SchM_Exit_Spi_Init                           PMU_PFLASH0     .text         .text                            src\Driver\includes\SchM.o
0x8000b31c 0x8000b31f    4 g SchM_Enter_Spi_DeInit                        PMU_PFLASH0     .text         .text                            src\Driver\includes\SchM.o
0x8000b320 0x8000b323    4 g SchM_Exit_Spi_DeInit                         PMU_PFLASH0     .text         .text                            src\Driver\includes\SchM.o
0x8000b324 0x8000b327    4 g SchM_Enter_Spi_SyncTransmit                  PMU_PFLASH0     .text         .text                            src\Driver\includes\SchM.o
0x8000b328 0x8000b32b    4 g SchM_Exit_Spi_SyncTransmit                   PMU_PFLASH0     .text         .text                            src\Driver\includes\SchM.o
0x8000b32c 0x8000b32f    4 g SchM_Enter_Wdg_17_Scu_TimerHandling          PMU_PFLASH0     .text         .text                            src\Driver\includes\SchM.o
0x8000b330 0x8000b333    4 g SchM_Enter_Wdg_17_Scu_Trigger                PMU_PFLASH0     .text         .text                            src\Driver\includes\SchM.o
0x8000b334 0x8000b337    4 g SchM_Enter_Wdg_17_Scu_ChangeMode             PMU_PFLASH0     .text         .text                            src\Driver\includes\SchM.o
0x8000b338 0x8000b33b    4 g SchM_Enter_Wdg_17_Scu_SafetyInit             PMU_PFLASH0     .text         .text                            src\Driver\includes\SchM.o
0x8000b33c 0x8000b33f    4 g SchM_Enter_Wdg_17_Scu_SafetyTrigger          PMU_PFLASH0     .text         .text                            src\Driver\includes\SchM.o
0x8000b340 0x8000b343    4 g SchM_Enter_Wdg_17_Scu_SafetyOffMode          PMU_PFLASH0     .text         .text                            src\Driver\includes\SchM.o
0x8000b344 0x8000b347    4 g SchM_Exit_Wdg_17_Scu_TimerHandling           PMU_PFLASH0     .text         .text                            src\Driver\includes\SchM.o
0x8000b348 0x8000b34b    4 g SchM_Exit_Wdg_17_Scu_Trigger                 PMU_PFLASH0     .text         .text                            src\Driver\includes\SchM.o
0x8000b34c 0x8000b34f    4 g SchM_Exit_Wdg_17_Scu_ChangeMode              PMU_PFLASH0     .text         .text                            src\Driver\includes\SchM.o
0x8000b350 0x8000b353    4 g SchM_Exit_Wdg_17_Scu_SafetyInit              PMU_PFLASH0     .text         .text                            src\Driver\includes\SchM.o
0x8000b354 0x8000b357    4 g SchM_Exit_Wdg_17_Scu_SafetyTrigger           PMU_PFLASH0     .text         .text                            src\Driver\includes\SchM.o
0x8000b358 0x8000b35b    4 g SchM_Exit_Wdg_17_Scu_SafetyOffMode           PMU_PFLASH0     .text         .text                            src\Driver\includes\SchM.o
0x8000b35c 0x8000b35f    4 g SchM_Enter_Fls_17_Pmu_Init                   PMU_PFLASH0     .text         .text                            src\Driver\includes\SchM.o
0x8000b360 0x8000b363    4 g SchM_Exit_Fls_17_Pmu_Init                    PMU_PFLASH0     .text         .text                            src\Driver\includes\SchM.o
0x8000b364 0x8000b367    4 g SchM_Enter_Fls_17_Pmu_Erase                  PMU_PFLASH0     .text         .text                            src\Driver\includes\SchM.o
0x8000b368 0x8000b36b    4 g SchM_Exit_Fls_17_Pmu_Erase                   PMU_PFLASH0     .text         .text                            src\Driver\includes\SchM.o
0x8000b36c 0x8000b36f    4 g SchM_Enter_Fls_17_Pmu_Write                  PMU_PFLASH0     .text         .text                            src\Driver\includes\SchM.o
0x8000b370 0x8000b373    4 g SchM_Exit_Fls_17_Pmu_Write                   PMU_PFLASH0     .text         .text                            src\Driver\includes\SchM.o
0x8000b374 0x8000b377    4 g SchM_Enter_Fls_17_Pmu_Main                   PMU_PFLASH0     .text         .text                            src\Driver\includes\SchM.o
0x8000b378 0x8000b37b    4 g SchM_Exit_Fls_17_Pmu_Main                    PMU_PFLASH0     .text         .text                            src\Driver\includes\SchM.o
0x8000b37c 0x8000b37f    4 g SchM_Enter_Fls_17_Pmu_ResumeErase            PMU_PFLASH0     .text         .text                            src\Driver\includes\SchM.o
0x8000b380 0x8000b383    4 g SchM_Exit_Fls_17_Pmu_ResumeErase             PMU_PFLASH0     .text         .text                            src\Driver\includes\SchM.o
0x8000b384 0x8000b387    4 g SchM_Enter_FlsLoader_Erase                   PMU_PFLASH0     .text         .text                            src\Driver\includes\SchM.o
0x8000b388 0x8000b38b    4 g SchM_Enter_FlsLoader_Write                   PMU_PFLASH0     .text         .text                            src\Driver\includes\SchM.o
0x8000b38c 0x8000b38f    4 g SchM_Enter_FlsLoader_lLock                   PMU_PFLASH0     .text         .text                            src\Driver\includes\SchM.o
0x8000b390 0x8000b393    4 g SchM_Exit_FlsLoader_lLock                    PMU_PFLASH0     .text         .text                            src\Driver\includes\SchM.o
0x8000b394 0x8000b397    4 g SchM_Exit_FlsLoader_Write                    PMU_PFLASH0     .text         .text                            src\Driver\includes\SchM.o
0x8000b398 0x8000b39b    4 g SchM_Exit_FlsLoader_Erase                    PMU_PFLASH0     .text         .text                            src\Driver\includes\SchM.o
0x8000b39c 0x8000b39f    4 g SchM_Enter_Eth_17_EthMac_Transmit            PMU_PFLASH0     .text         .text                            src\Driver\includes\SchM.o
0x8000b3a0 0x8000b3a3    4 g SchM_Exit_Eth_17_EthMac_Transmit             PMU_PFLASH0     .text         .text                            src\Driver\includes\SchM.o
0x8000b3a4 0x8000b3a7    4 g SchM_Enter_Eth_17_EthMac_ProvideTxBuffer     PMU_PFLASH0     .text         .text                            src\Driver\includes\SchM.o
0x8000b3a8 0x8000b3ab    4 g SchM_Exit_Eth_17_EthMac_ProvideTxBuffer      PMU_PFLASH0     .text         .text                            src\Driver\includes\SchM.o
0x8000b3ac 0x8000b3af    4 g SchM_Enter_Eth_17_EthMac_SetControllerMode   PMU_PFLASH0     .text         .text                            src\Driver\includes\SchM.o
0x8000b3b0 0x8000b3b3    4 g SchM_Exit_Eth_17_EthMac_SetControllerMode    PMU_PFLASH0     .text         .text                            src\Driver\includes\SchM.o
0x8000b3b4 0x8000b3b7    4 g SchM_Enter_Eth_17_EthMac_TxRxIrqHandler      PMU_PFLASH0     .text         .text                            src\Driver\includes\SchM.o
0x8000b3b8 0x8000b3bb    4 g SchM_Exit_Eth_17_EthMac_TxRxIrqHandler       PMU_PFLASH0     .text         .text                            src\Driver\includes\SchM.o
0x8000b3bc 0x8000b3cb   16 g main                                         PMU_PFLASH0     .text         .text                            src\main.o
0x8000b3ce 0x8000b3ce    0 l __do_global_dtors_aux                        PMU_PFLASH0     .text         .text.__do_global_dtors_aux      c:/hightec/toolchains/tricore/v4.6.6.1/bin/../lib/gcc/tricore/4.6.4/tc161/short-double/crtbegin.o
0x8000b418 0x8000b418    0 l call___do_global_dtors_aux                   PMU_PFLASH0     .text         .text.call___do_global_dtors_aux c:/hightec/toolchains/tricore/v4.6.6.1/bin/../lib/gcc/tricore/4.6.4/tc161/short-double/crtbegin.o
0x8000b418 0x8000b418    0 l frame_dummy                                  PMU_PFLASH0     .text         .text.frame_dummy                c:/hightec/toolchains/tricore/v4.6.6.1/bin/../lib/gcc/tricore/4.6.4/tc161/short-double/crtbegin.o
0x8000b434 0x8000b434    0 l call_frame_dummy                             PMU_PFLASH0     .text         .text.call_frame_dummy           c:/hightec/toolchains/tricore/v4.6.6.1/bin/../lib/gcc/tricore/4.6.4/tc161/short-double/crtbegin.o
0x8000b434 0x8000b503  208 g rand                                         PMU_PFLASH0     .text         .text.rand                       rand.o
0x8000b504 0x8000b535   50 g srand                                        PMU_PFLASH0     .text         .text.srand                      srand.o
0x8000b536 0x8000b561   44 g unlock_wdtcon                                PMU_PFLASH0     .text         .text.unlock_wdtcon              wdtcon.o
0x8000b562 0x8000b58d   44 g lock_wdtcon                                  PMU_PFLASH0     .text         .text.lock_wdtcon                wdtcon.o
0x8000b58e 0x8000b5ad   32 g unlock_safety_wdtcon                         PMU_PFLASH0     .text         .text.unlock_safety_wdtcon       wdtcon.o
0x8000b5ae 0x8000b5cd   32 g lock_safety_wdtcon                           PMU_PFLASH0     .text         .text.lock_safety_wdtcon         wdtcon.o
0x8000b5ce 0x8000b5dd   16 g _exit                                        PMU_PFLASH0     .text         .text._exit                      libos_exit.o
0x8000b5de 0x8000b5de    0 l __do_global_ctors_aux                        PMU_PFLASH0     .text         .text.__do_global_ctors_aux      c:/hightec/toolchains/tricore/v4.6.6.1/bin/../lib/gcc/tricore/4.6.4/tc161/short-double/crtend.o
0x8000b5f8 0x8000b5f8    0 g _init                                        PMU_PFLASH0     .init         .init                            c:/hightec/toolchains/tricore/v4.6.6.1/bin/../lib/gcc/tricore/4.6.4/tc161/short-double/crti.o
0x8000b5f8 0x8000b5f8    0 l call___do_global_ctors_aux                   PMU_PFLASH0     .text         .text.call___do_global_ctors_aux c:/hightec/toolchains/tricore/v4.6.6.1/bin/../lib/gcc/tricore/4.6.4/tc161/short-double/crtend.o
0x8000b608 0x8000b608    0 g _fini                                        PMU_PFLASH0     .fini         .fini                            c:/hightec/toolchains/tricore/v4.6.6.1/bin/../lib/gcc/tricore/4.6.4/tc161/short-double/crti.o
0x8000b610 0x8000b64f   64 g Can_HardwareObjectConfigData                 PMU_PFLASH0     .rodata       .rodata                          src\Cfg\Can\Can_Cfg.o
0x8000b650 0x8000b653    4 g Can_HohConfigData                            PMU_PFLASH0     .rodata       .rodata                          src\Cfg\Can\Can_Cfg.o
0x8000b654 0x8000b65b    8 g Can_ControllerConfigData                     PMU_PFLASH0     .rodata       .rodata                          src\Cfg\Can\Can_Cfg.o
0x8000b65c 0x8000b66b   16 g Can_ControllerPCConfigData                   PMU_PFLASH0     .rodata       .rodata                          src\Cfg\Can\Can_Cfg.o
0x8000b66c 0x8000b67b   16 g CanIfTxCh                                    PMU_PFLASH0     .rodata       .rodata                          src\Cfg\CanIf\CanIf_Cfg.o
0x8000b67c 0x8000b6ab   48 g CanIfRxCh                                    PMU_PFLASH0     .rodata       .rodata                          src\Cfg\CanIf\CanIf_Cfg.o
0x8000b6ac 0x8000b6bb   16 g CanTp_RxSdu                                  PMU_PFLASH0     .rodata       .rodata                          src\Cfg\CanTp\CanTp_Cfg.o
0x8000b6bc 0x8000b6c1    6 g CanTp_TxSdu                                  PMU_PFLASH0     .rodata       .rodata                          src\Cfg\CanTp\CanTp_Cfg.o
0x8000b6c4 0x8000b753  144 g Dcm_ServiceTable                             PMU_PFLASH0     .rodata       .rodata                          src\Cfg\Dcm\Dcm_Cfg.o
0x8000b754 0x8000b75f   12 g Dcm_SessionRow                               PMU_PFLASH0     .rodata       .rodata                          src\Cfg\Dcm\Dcm_Cfg.o
0x8000b760 0x8000b763    4 g Dcm_ResetRow                                 PMU_PFLASH0     .rodata       .rodata                          src\Cfg\Dcm\Dcm_Cfg.o
0x8000b764 0x8000b773   16 g Dcm_ReadDidRow                               PMU_PFLASH0     .rodata       .rodata                          src\Cfg\Dcm\Dcm_Cfg.o
0x8000b774 0x8000b783   16 g Dcm_SecurityRow                              PMU_PFLASH0     .rodata       .rodata                          src\Cfg\Dcm\Dcm_Cfg.o
0x8000b784 0x8000b78f   12 g Dcm_ComControlRow                            PMU_PFLASH0     .rodata       .rodata                          src\Cfg\Dcm\Dcm_Cfg.o
0x8000b790 0x8000b79b   12 g Dcm_WriteDidRow                              PMU_PFLASH0     .rodata       .rodata                          src\Cfg\Dcm\Dcm_Cfg.o
0x8000b79c 0x8000b7cb   48 g Dcm_RoutineControlRow                        PMU_PFLASH0     .rodata       .rodata                          src\Cfg\Dcm\Dcm_Cfg.o
0x8000b7cc 0x8000b7cc    1 g Dcm_DownloadRow                              PMU_PFLASH0     .rodata       .rodata                          src\Cfg\Dcm\Dcm_Cfg.o
0x8000b7cd 0x8000b7cd    1 g Dcm_testPresentRow                           PMU_PFLASH0     .rodata       .rodata                          src\Cfg\Dcm\Dcm_Cfg.o
0x8000b7ce 0x8000b7d5    8 g Dcm_DTCSettingRow                            PMU_PFLASH0     .rodata       .rodata                          src\Cfg\Dcm\Dcm_Cfg.o
0x8000b7d8 0x8000b813   60 g FL_BlkInfo                                   PMU_PFLASH0     .rodata       .rodata                          src\Cfg\FL\FL_Cfg.o
0x8000b814 0x8000b863   80 l Mcu_kClockConfiguration0                     PMU_PFLASH0     .rodata       .rodata                          src\Cfg\Mcu\Mcu_PBCfg.o
0x8000b864 0x8000b87b   24 g Mcu_ConfigRoot                               PMU_PFLASH0     .rodata       .rodata                          src\Cfg\Mcu\Mcu_PBCfg.o
0x8000b87c 0x8000bc7b 1024 g Cal_Crc32Tab                                 PMU_PFLASH0     .rodata       .rodata                          src\Core\Cal\Cal.o
0x8000bc9c 0x8000bca7   12 l Mcal_CpuAddressMap                           PMU_PFLASH0     .rodata       .rodata                          src\Driver\includes\Mcal_TcLib.o
0x8000bca8 0x8000bcd7   48 l ScuWdtPtrList                                PMU_PFLASH0     .rodata       .rodata                          src\Driver\includes\Mcal_WdgLib.o
0x8000bd38 0x8000bd38    0 g __CTOR_LIST__                                PMU_PFLASH0     .ctors        .ctors                           HTCU200_FBL.elf
0x8000bd3c 0x8000bd3c    0 l __CTOR_LIST__                                PMU_PFLASH0     .ctors        .ctors                           c:/hightec/toolchains/tricore/v4.6.6.1/bin/../lib/gcc/tricore/4.6.4/tc161/short-double/crtbegin.o
0x8000bd40 0x8000bd40    0 l __CTOR_END__                                 PMU_PFLASH0     .ctors        .ctors                           c:/hightec/toolchains/tricore/v4.6.6.1/bin/../lib/gcc/tricore/4.6.4/tc161/short-double/crtend.o
0x8000bd48 0x8000bd48    0 g __CTOR_END__                                 PMU_PFLASH0     .ctors        .ctors                           HTCU200_FBL.elf
0x8000bd48 0x8000bd48    0 g __DTOR_LIST__                                PMU_PFLASH0     .dtors        .dtors                           HTCU200_FBL.elf
0x8000bd4c 0x8000bd4c    0 l __DTOR_LIST__                                PMU_PFLASH0     .dtors        .dtors                           c:/hightec/toolchains/tricore/v4.6.6.1/bin/../lib/gcc/tricore/4.6.4/tc161/short-double/crtbegin.o
0x8000bd58 0x8000bd58    0 g __DTOR_END__                                 PMU_PFLASH0     .dtors        .dtors                           HTCU200_FBL.elf
0x8000bd58 0x8000bd58    0 g __clear_table                                PMU_PFLASH0     .clear_sec    .clear_sec                       HTCU200_FBL.elf
0x8000bd80 0x8000bd80    0 g __copy_table                                 PMU_PFLASH0     .copy_sec     .copy_sec                        HTCU200_FBL.elf
0x80200000 0x80200000    0 g __PMU_PFLASH1_BEGIN                          *ABS*           *ABS*         *ABS*                            *ABS*
0x8fff8000 0x8fff8000    0 g __BROM_BEGIN                                 *ABS*           *ABS*         *ABS*                            *ABS*
0x90000000 0x90000000    0 g __LMU_SRAM_BEGIN                             *ABS*           *ABS*         *ABS*                            *ABS*
0xaf000000 0xaf000067  104 g BL_Information                               PMU_DFLASH0_NVM .BL_NvmInf    .BL_NvmInf                       src\Core\Fl\FL.o
0xaf000000 0xaf000000    0 g __PMU_DFLASH0_NVM_BEGIN                      *ABS*           *ABS*         *ABS*                            *ABS*
0xaf004000 0xaf004000    0 g __PMU_DFLASH0_BEGIN                          *ABS*           *ABS*         *ABS*                            *ABS*
0xaf100000 0xaf100000    0 g __PMU_DFLASH0_1_BEGIN                        *ABS*           *ABS*         *ABS*                            *ABS*
0xaf110000 0xaf110000    0 g __PMU_DFLASH1_BEGIN                          *ABS*           *ABS*         *ABS*                            *ABS*
0xc0000000 0xc0000000    0 l __JCR_LIST__                                 PMI_PSPR        .jcr          .jcr                             c:/hightec/toolchains/tricore/v4.6.6.1/bin/../lib/gcc/tricore/4.6.4/tc161/short-double/crtbegin.o
0xc0000000 0xc0000000    0 g __PMI_PSPR_BEGIN                             *ABS*           *ABS*         *ABS*                            *ABS*
0xd0000000 0xd0000000    0 g __DMI_DSPR_BEGIN                             *ABS*           *ABS*         *ABS*                            *ABS*
0xd0000000 0xd0000017   24 l flashParamInfo                               DMI_DSPR        .data         .data                            src\Core\Fl\FL.o
0xd0000018 0xd000001b    4 g BLFlash_InfoPtr                              DMI_DSPR        .data         .data                            src\Driver\Fls\Fls.o
0xd0000020 0xd0000023    4 g Mcu_ResetStatusVal                           DMI_DSPR        .data         .data                            src\Driver\MCU\Mcu.o
0xd0000028 0xd0000033   12 l Mcal_SavedIntStateRedn                       DMI_DSPR        .data         .data                            src\Driver\includes\Mcal_TcLib.o
0xd0000034 0xd000003f   12 l Mcal_IntDisableCounterRedn                   DMI_DSPR        .data         .data                            src\Driver\includes\Mcal_TcLib.o
0xd0000040 0xd000004b   12 l Mcal_ResetEndInitCounterRedn                 DMI_DSPR        .data         .data                            src\Driver\includes\Mcal_WdgLib.o
0xd000004c 0xd000004f    4 l Mcal_SafetyResetEndInitCounterRedn           DMI_DSPR        .data         .data                            src\Driver\includes\Mcal_WdgLib.o
0xd0000050 0xd0000053    4 l Mcal_WdgSafetyEndInitSemRedn                 DMI_DSPR        .data         .data                            src\Driver\includes\Mcal_WdgLib.o
0xd0000058 0xd000005b    4 g _Randseed                                    DMI_DSPR        .data         .data                            rand.o
0xd0000060 0xd0000060    0 l completed.3082                               DMI_DSPR        .bss          .bss                             c:/hightec/toolchains/tricore/v4.6.6.1/bin/../lib/gcc/tricore/4.6.4/tc161/short-double/crtbegin.o
0xd0000064 0xd0000064    0 l dtor_idx.3084                                DMI_DSPR        .bss          .bss                             c:/hightec/toolchains/tricore/v4.6.6.1/bin/../lib/gcc/tricore/4.6.4/tc161/short-double/crtbegin.o
0xd0000068 0xd0000068    1 g FunctService255                              DMI_DSPR        .bss          .bss                             src\Core\Appl\Appl.o
0xd000006c 0xd000006f    4 l ApplShutDownTimer                            DMI_DSPR        .bss          .bss                             src\Core\Appl\Appl.o
0xd0000070 0xd0000073    4 l ApplBootStayTimer                            DMI_DSPR        .bss          .bss                             src\Core\Appl\Appl.o
0xd0000074 0xd0000074    1 l led_cnt.3978                                 DMI_DSPR        .bss          .bss                             src\Core\Appl\Appl.o
0xd0000078 0xd00000d7   96 l CanTp_RuntimeData                            DMI_DSPR        .bss          .bss                             src\Core\CanTp\CanTp.o
0xd00000d8 0xd00004d7 1024 g Dcm_MainRxBuff                               DMI_DSPR        .bss          .bss                             src\Core\Dcm\Dcm.o
0xd00004d8 0xd0000527   80 g Dcm_MainTxBuff                               DMI_DSPR        .bss          .bss                             src\Core\Dcm\Dcm.o
0xd0000528 0xd0000528    1 g dcmDummyDefault                              DMI_DSPR        .bss          .bss                             src\Core\Dcm\Dcm.o
0xd000052c 0xd000054f   36 l dcmComStatus                                 DMI_DSPR        .bss          .bss                             src\Core\Dcm\Dcm.o
0xd0000550 0xd000055b   12 l dcmRunTime                                   DMI_DSPR        .bss          .bss                             src\Core\Dcm\Dcm.o
0xd000055c 0xd000055c    1 g TestFlag                                     DMI_DSPR        .bss          .bss                             src\Core\Dcm\Dcm.o
0xd0000560 0xd0000567    8 l dcmDspProgram                                DMI_DSPR        .bss          .bss                             src\Core\Dcm\Dcm_Dsp.o
0xd0000568 0xd000056f    8 l dcmDspSec                                    DMI_DSPR        .bss          .bss                             src\Core\Dcm\Dcm_Dsp.o
0xd0000570 0xd0000573    4 l dcmLastSeed                                  DMI_DSPR        .bss          .bss                             src\Core\Dcm\Dcm_Dsp.o
0xd0000578 0xd00005e3  108 g FL_NvmInfo                                   DMI_DSPR        .bss          .bss                             src\Core\Fl\FL.o
0xd00005e4 0xd00005eb    8 l FL_RemainDataStruct                          DMI_DSPR        .bss          .bss                             src\Core\Fl\FL.o
0xd00005ec 0xd00007ef  516 l FldownloadStatus                             DMI_DSPR        .bss          .bss                             src\Core\Fl\FL.o
0xd00007f0 0xd00008ef  256 l FlProgramData                                DMI_DSPR        .bss          .bss                             src\Core\Fl\FL.o
0xd00008f0 0xd00008f3    4 l FlProgramLength                              DMI_DSPR        .bss          .bss                             src\Core\Fl\FL.o
0xd00008f8 0xd000095b  100 g SecM_CrcDataBuffer                           DMI_DSPR        .bss          .bss                             src\Core\SecM\SecM.o
0xd0000960 0xd0000963    4 l Can_GlobalConfigPtr                          DMI_DSPR        .bss          .bss                             src\Driver\Can\Can.o
0xd0000964 0xd00009eb  136 l Can_Cntrl                                    DMI_DSPR        .bss          .bss                             src\Driver\Can\Can.o
0xd00009f0 0xd00009f3    4 g Mcu_kConfigPtr                               DMI_DSPR        .bss          .bss                             src\Driver\MCU\Mcu.o
0xd00009f4 0xd00009f4    1 g Mcu_ClockSetting                             DMI_DSPR        .bss          .bss                             src\Driver\MCU\Mcu.o
0xd00009f8 0xd0000a03   12 l Mcal_SavedIntState                           DMI_DSPR        .bss          .bss                             src\Driver\includes\Mcal_TcLib.o
0xd0000a04 0xd0000a0f   12 l Mcal_IntDisableCounter                       DMI_DSPR        .bss          .bss                             src\Driver\includes\Mcal_TcLib.o
0xd0000a10 0xd0000a1b   12 l Mcal_ResetEndInitCounter                     DMI_DSPR        .bss          .bss                             src\Driver\includes\Mcal_WdgLib.o
0xd0000a1c 0xd0000a1f    4 l Mcal_SafetyResetEndInitCounter               DMI_DSPR        .bss          .bss                             src\Driver\includes\Mcal_WdgLib.o
0xd0000a20 0xd0000a23    4 l Mcal_WdgSafetyEndInitSem                     DMI_DSPR        .bss          .bss                             src\Driver\includes\Mcal_WdgLib.o
0xd0000a24 0xd0000a27    4 l Swdt_TimValue                                DMI_DSPR        .bss          .bss                             src\Driver\includes\Mcal_WdgLib.o
0xd0000a28 0xd0000a2b    4 l Wdt0_TimValue                                DMI_DSPR        .bss          .bss                             src\Driver\includes\Mcal_WdgLib.o
0xd0000a2c 0xd0000a2f    4 l Wdt1_TimValue                                DMI_DSPR        .bss          .bss                             src\Driver\includes\Mcal_WdgLib.o
0xd0000a30 0xd0000a33    4 l Wdt2_TimValue                                DMI_DSPR        .bss          .bss                             src\Driver\includes\Mcal_WdgLib.o
0xd0000a38 0xd0000a3b    4 g _Tls_setup__Randseed                         DMI_DSPR        .bss          .bss                             rand.o
0xd0000a3c 0xd0000a3f    4 g _Tls_setup__Randinit                         DMI_DSPR        .bss          .bss                             rand.o
0xd0000a40 0xd0000a40    1 g _Randinit                                    DMI_DSPR        .bss          .bss                             rand.o
0xd0000a44 0xd0000ac3  128 l rv                                           DMI_DSPR        .bss          .bss                             rand.o
0xd0000ac4 0xd0000ac7    4 l idx                                          DMI_DSPR        .bss          .bss                             rand.o
0xd0000ac8 0xd0000ac8    0 g __USTACK_BEGIN                               DMI_DSPR        .ustack       .ustack                          HTCU200_FBL.elf
0xd0000ec8 0xd0000ec8    0 g __ISTACK_BEGIN                               DMI_DSPR        .istack       .istack                          HTCU200_FBL.elf
0xd0000ec8 0xd0000ec8    0 g __USTACK                                     DMI_DSPR        .ustack       .ustack                          HTCU200_FBL.elf
0xd0000ec8 0xd0000ec8    0 g __USTACK_END                                 DMI_DSPR        .ustack       .ustack                          HTCU200_FBL.elf
0xd0000fc8 0xd0000fc8    0 g __HEAP                                       DMI_DSPR        .heap         .heap                            HTCU200_FBL.elf
0xd0000fc8 0xd0000fc8    0 g __HEAP_BEGIN                                 DMI_DSPR        .heap         .heap                            HTCU200_FBL.elf
0xd0000fc8 0xd0000fc8    0 g __ISTACK                                     DMI_DSPR        .istack       .istack                          HTCU200_FBL.elf
0xd0000fc8 0xd0000fc8    0 g __ISTACK_END                                 DMI_DSPR        .istack       .istack                          HTCU200_FBL.elf
0xd0001fc8 0xd0001fc8    0 g __HEAP_END                                   DMI_DSPR        .heap         .heap                            HTCU200_FBL.elf
0xd0002000 0xd0002000    0 g __CSA                                        DMI_DSPR        .csa          .csa                             HTCU200_FBL.elf
0xd0002000 0xd0002000    0 g __CSA_BEGIN                                  DMI_DSPR        .csa          .csa                             HTCU200_FBL.elf
0xd0006000 0xd0006000    0 g __CSA_END                                    DMI_DSPR        .csa          .csa                             HTCU200_FBL.elf
0xf00360f0 0xf00360f0    0 l SCU_WDTSCON0                                 *ABS*           *ABS*         *ABS*                            *ABS*
0xf00360f4 0xf00360f4    0 l SCU_WDTSCON1                                 *ABS*           *ABS*         *ABS*                            *ABS*
0xf0036100 0xf0036100    0 l SCU_WDTCPU0CON0                              *ABS*           *ABS*         *ABS*                            *ABS*
0xf0036104 0xf0036104    0 l SCU_WDTCPU0CON1                              *ABS*           *ABS*         *ABS*                            *ABS*

>>> Symbols (global (S = g) and static (S = l); sorted by name)

==========================================================================================================================================================================================================================================
Start      End        Size S Name                                         Memory          O-Sec         I-Sec                            Input object                                                                                     
==========================================================================================================================================================================================================================================
0x0000fe38 0x0000fe38    0 l $fcx                                         *ABS*           *ABS*         *ABS*                            *ABS*
0x0000fe28 0x0000fe28    0 l $isp                                         *ABS*           *ABS*         *ABS*                            *ABS*
0x0000fe3c 0x0000fe3c    0 l $lcx                                         *ABS*           *ABS*         *ABS*                            *ABS*
0x0000fe00 0x0000fe00    0 l $pcxi                                        *ABS*           *ABS*         *ABS*                            *ABS*
0x0000fe04 0x0000fe04    0 l $psw                                         *ABS*           *ABS*         *ABS*                            *ABS*
0xd0000070 0xd0000073    4 l ApplBootStayTimer                            DMI_DSPR        .bss          .bss                             src\Core\Appl\Appl.o
0xd000006c 0xd000006f    4 l ApplShutDownTimer                            DMI_DSPR        .bss          .bss                             src\Core\Appl\Appl.o
0x800008a6 0x80000917  114 l Appl_BootStayTimer                           PMU_PFLASH0     .text         .text                            src\Core\Appl\Appl.o
0x800004f2 0x80000551   96 g Appl_CheckConsistency                        PMU_PFLASH0     .text         .text                            src\Core\Appl\Appl.o
0x800004d6 0x800004f1   28 g Appl_EcuReset                                PMU_PFLASH0     .text         .text                            src\Core\Appl\Appl.o
0x800004d2 0x800004d5    4 g Appl_EcuShutdown                             PMU_PFLASH0     .text         .text                            src\Core\Appl\Appl.o
0x80000836 0x800008a5  112 l Appl_EcuShutdownTimer                        PMU_PFLASH0     .text         .text                            src\Core\Appl\Appl.o
0x80000374 0x8000044b  216 g Appl_EcuStartup                              PMU_PFLASH0     .text         .text                            src\Core\Appl\Appl.o
0x8000044c 0x800004d1  134 g Appl_FlStartup                               PMU_PFLASH0     .text         .text                            src\Core\Appl\Appl.o
0x80000918 0x80000927   16 l Appl_GotoAppSW                               PMU_PFLASH0     .text         .text                            src\Core\Appl\Appl.o
0x800006e2 0x80000835  340 l Appl_InitNvmInfo                             PMU_PFLASH0     .text         .text                            src\Core\Appl\Appl.o
0x800006da 0x800006e1    8 l Appl_JumpApp                                 PMU_PFLASH0     .text         .text                            src\Core\Appl\Appl.o
0x80000640 0x80000693   84 g Appl_Memcpy                                  PMU_PFLASH0     .text         .text                            src\Core\Appl\Appl.o
0x80000694 0x800006d9   70 g Appl_Memset                                  PMU_PFLASH0     .text         .text                            src\Core\Appl\Appl.o
0x80000552 0x8000063f  238 g Appl_UpdateTriggerCondition                  PMU_PFLASH0     .text         .text                            src\Core\Appl\Appl.o
0xd0000018 0xd000001b    4 g BLFlash_InfoPtr                              DMI_DSPR        .data         .data                            src\Driver\Fls\Fls.o
0xaf000000 0xaf000067  104 g BL_Information                               PMU_DFLASH0_NVM .BL_NvmInf    .BL_NvmInf                       src\Core\Fl\FL.o
0x0000fe1c 0x0000fe1c    0 l CORE_ID                                      *ABS*           *ABS*         *ABS*                            *ABS*
0x8000b87c 0x8000bc7b 1024 g Cal_Crc32Tab                                 PMU_PFLASH0     .rodata       .rodata                          src\Core\Cal\Cal.o
0x8000093c 0x800009a9  110 g Cal_CrcCal                                   PMU_PFLASH0     .text         .text                            src\Core\Cal\Cal.o
0x800009aa 0x800009c5   28 g Cal_CrcFinalize                              PMU_PFLASH0     .text         .text                            src\Core\Cal\Cal.o
0x80000928 0x8000093b   20 g Cal_CrcInit                                  PMU_PFLASH0     .text         .text                            src\Core\Cal\Cal.o
0x8000b67c 0x8000b6ab   48 g CanIfRxCh                                    PMU_PFLASH0     .rodata       .rodata                          src\Cfg\CanIf\CanIf_Cfg.o
0x8000b66c 0x8000b67b   16 g CanIfTxCh                                    PMU_PFLASH0     .rodata       .rodata                          src\Cfg\CanIf\CanIf_Cfg.o
0x80000bba 0x80000bc5   12 g CanIf_ControllerBusOff                       PMU_PFLASH0     .text         .text                            src\Core\CanIf\CanIf.o
0x800009c6 0x800009e7   34 g CanIf_Init                                   PMU_PFLASH0     .text         .text                            src\Core\CanIf\CanIf.o
0x80000bc6 0x80000bd9   20 g CanIf_MainFunction                           PMU_PFLASH0     .text         .text                            src\Core\CanIf\CanIf.o
0x80000b16 0x80000bb9  164 g CanIf_RxIndication                           PMU_PFLASH0     .text         .text                            src\Core\CanIf\CanIf.o
0x800009e8 0x80000aab  196 g CanIf_Transmit                               PMU_PFLASH0     .text         .text                            src\Core\CanIf\CanIf.o
0x80000aac 0x80000b15  106 g CanIf_TxConfirmation                         PMU_PFLASH0     .text         .text                            src\Core\CanIf\CanIf.o
0x80001ed2 0x80001fc7  246 l CanTp_CopyDataToMsgFromTxBuf                 PMU_PFLASH0     .text         .text                            src\Core\CanTp\CanTp.o
0x80001700 0x800017fb  252 l CanTp_CopySegmentToRxBuffer                  PMU_PFLASH0     .text         .text                            src\Core\CanTp\CanTp.o
0x8000197c 0x80001bab  560 l CanTp_FindTpListIndexFromRxPdu               PMU_PFLASH0     .text         .text                            src\Core\CanTp\CanTp.o
0x80001914 0x8000197b  104 l CanTp_FindTpRxIndexFromTxChannel             PMU_PFLASH0     .text         .text                            src\Core\CanTp\CanTp.o
0x800017fc 0x80001913  280 l CanTp_FindTpRxIndicationIndexFromRxChannel   PMU_PFLASH0     .text         .text                            src\Core\CanTp\CanTp.o
0x80001c6c 0x80001d5f  244 l CanTp_FindTpTxConfirmIndexFromRxChannel      PMU_PFLASH0     .text         .text                            src\Core\CanTp\CanTp.o
0x80001bac 0x80001c6b  192 l CanTp_FindTpTxConfirmIndexFromTxChannel      PMU_PFLASH0     .text         .text                            src\Core\CanTp\CanTp.o
0x80001d60 0x80001dc5  102 l CanTp_FindTpTxListFromSduId                  PMU_PFLASH0     .text         .text                            src\Core\CanTp\CanTp.o
0x800011d6 0x80001223   78 l CanTp_FrameAddPadding                        PMU_PFLASH0     .text         .text                            src\Core\CanTp\CanTp.o
0x80000bdc 0x80000c11   54 g CanTp_Init                                   PMU_PFLASH0     .text         .text                            src\Core\CanTp\CanTp.o
0x80001684 0x800016ff  124 l CanTp_Init15765RuntimeData                   PMU_PFLASH0     .text         .text                            src\Core\CanTp\CanTp.o
0x80000f70 0x800011d5  614 g CanTp_MainFunction                           PMU_PFLASH0     .text         .text                            src\Core\CanTp\CanTp.o
0x800013a8 0x80001557  432 l CanTp_ReceiveConsecutiveFrame                PMU_PFLASH0     .text         .text                            src\Core\CanTp\CanTp.o
0x800012e6 0x800013a7  194 l CanTp_ReceiveFirstFrame                      PMU_PFLASH0     .text         .text                            src\Core\CanTp\CanTp.o
0x80001558 0x80001683  300 l CanTp_ReceiveFlowControlFrame                PMU_PFLASH0     .text         .text                            src\Core\CanTp\CanTp.o
0x80001224 0x800012e5  194 l CanTp_ReceiveSingleFrame                     PMU_PFLASH0     .text         .text                            src\Core\CanTp\CanTp.o
0xd0000078 0xd00000d7   96 l CanTp_RuntimeData                            DMI_DSPR        .bss          .bss                             src\Core\CanTp\CanTp.o
0x80000c12 0x80000d95  388 g CanTp_RxIndication                           PMU_PFLASH0     .text         .text                            src\Core\CanTp\CanTp.o
0x8000b6ac 0x8000b6bb   16 g CanTp_RxSdu                                  PMU_PFLASH0     .rodata       .rodata                          src\Cfg\CanTp\CanTp_Cfg.o
0x8000219c 0x800022f1  342 l CanTp_SendConsecutiveFrame                   PMU_PFLASH0     .text         .text                            src\Core\CanTp\CanTp.o
0x80002088 0x8000219b  276 l CanTp_SendFirstFrame                         PMU_PFLASH0     .text         .text                            src\Core\CanTp\CanTp.o
0x80001df8 0x80001ed1  218 l CanTp_SendFlowControlFrame                   PMU_PFLASH0     .text         .text                            src\Core\CanTp\CanTp.o
0x80001fc8 0x80002087  192 l CanTp_SendSingleFrame                        PMU_PFLASH0     .text         .text                            src\Core\CanTp\CanTp.o
0x800022f2 0x8000237d  140 l CanTp_SendTxFrame                            PMU_PFLASH0     .text         .text                            src\Core\CanTp\CanTp.o
0x80000f0a 0x80000f6f  102 g CanTp_Transmit                               PMU_PFLASH0     .text         .text                            src\Core\CanTp\CanTp.o
0x80000d96 0x80000f09  372 g CanTp_TxConfirmation                         PMU_PFLASH0     .text         .text                            src\Core\CanTp\CanTp.o
0x8000b6bc 0x8000b6c1    6 g CanTp_TxSdu                                  PMU_PFLASH0     .rodata       .rodata                          src\Cfg\CanTp\CanTp_Cfg.o
0x800023dc 0x80002437   92 l CanTp_WaitCFBufProcess                       PMU_PFLASH0     .text         .text                            src\Core\CanTp\CanTp.o
0x80002438 0x8000245d   38 l CanTp_WaitFCTxBufProcess                     PMU_PFLASH0     .text         .text                            src\Core\CanTp\CanTp.o
0x8000237e 0x800023db   94 l CanTp_WaitSForLastCFBufProcess               PMU_PFLASH0     .text         .text                            src\Core\CanTp\CanTp.o
0x80001dc6 0x80001df7   50 l CanTp_calcTxFrameType                        PMU_PFLASH0     .text         .text                            src\Core\CanTp\CanTp.o
0x80006bdc 0x80006c6b  144 l Can_BusOff_Handler                           PMU_PFLASH0     .text         .text                            src\Driver\Can\Can.o
0x80006a90 0x80006aa7   24 g Can_Cbk_CheckWakeup                          PMU_PFLASH0     .text         .text                            src\Driver\Can\Can.o
0xd0000964 0xd00009eb  136 l Can_Cntrl                                    DMI_DSPR        .bss          .bss                             src\Driver\Can\Can.o
0x8000b654 0x8000b65b    8 g Can_ControllerConfigData                     PMU_PFLASH0     .rodata       .rodata                          src\Cfg\Can\Can_Cfg.o
0x8000b65c 0x8000b66b   16 g Can_ControllerPCConfigData                   PMU_PFLASH0     .rodata       .rodata                          src\Cfg\Can\Can_Cfg.o
0x80007588 0x800076d9  338 l Can_DeInitMB                                 PMU_PFLASH0     .text         .text                            src\Driver\Can\Can.o
0x80008032 0x8000812b  250 g Can_Deinit                                   PMU_PFLASH0     .text         .text                            src\Driver\Can\Can.o
0x80006920 0x80006963   68 g Can_DisableControllerInterrupts              PMU_PFLASH0     .text         .text                            src\Driver\Can\Can.o
0x80007ca6 0x80007e55  432 l Can_DisableInt                               PMU_PFLASH0     .text         .text                            src\Driver\Can\Can.o
0x80006964 0x800069f5  146 g Can_EnableControllerInterrupts               PMU_PFLASH0     .text         .text                            src\Driver\Can\Can.o
0x800078ee 0x80007a43  342 l Can_GetMBInfo                                PMU_PFLASH0     .text         .text                            src\Driver\Can\Can.o
0xd0000960 0xd0000963    4 l Can_GlobalConfigPtr                          DMI_DSPR        .bss          .bss                             src\Driver\Can\Can.o
0x8000b610 0x8000b64f   64 g Can_HardwareObjectConfigData                 PMU_PFLASH0     .rodata       .rodata                          src\Cfg\Can\Can_Cfg.o
0x8000b650 0x8000b653    4 g Can_HohConfigData                            PMU_PFLASH0     .rodata       .rodata                          src\Cfg\Can\Can_Cfg.o
0x800066e8 0x80006851  362 g Can_Init                                     PMU_PFLASH0     .text         .text                            src\Driver\Can\Can.o
0x80006852 0x80006887   54 g Can_InitController                           PMU_PFLASH0     .text         .text                            src\Driver\Can\Can.o
0x80007188 0x80007205  126 l Can_InitHwCntrl                              PMU_PFLASH0     .text         .text                            src\Driver\Can\Can.o
0x80007206 0x80007587  898 l Can_InitMB                                   PMU_PFLASH0     .text         .text                            src\Driver\Can\Can.o
0x80007f26 0x80008031  268 l Can_InitPort                                 PMU_PFLASH0     .text         .text                            src\Driver\Can\Can.o
0x800076da 0x80007715   60 l Can_IsTxMbFree                               PMU_PFLASH0     .text         .text                            src\Driver\Can\Can.o
0x80006b5c 0x80006bd7  124 g Can_MainFunction_BusOff                      PMU_PFLASH0     .text         .text                            src\Driver\Can\Can.o
0x80006b02 0x80006b5b   90 g Can_MainFunction_Read                        PMU_PFLASH0     .text         .text                            src\Driver\Can\Can.o
0x80006bd8 0x80006bdb    4 g Can_MainFunction_Wakeup                      PMU_PFLASH0     .text         .text                            src\Driver\Can\Can.o
0x80006aa8 0x80006b01   90 g Can_MainFunction_Write                       PMU_PFLASH0     .text         .text                            src\Driver\Can\Can.o
0x80007e56 0x80007ee7  146 l Can_ResetPnd                                 PMU_PFLASH0     .text         .text                            src\Driver\Can\Can.o
0x80006d9c 0x80006fb5  538 l Can_RxProcess                                PMU_PFLASH0     .text         .text                            src\Driver\Can\Can.o
0x80006888 0x8000691f  152 g Can_SetControllerMode                        PMU_PFLASH0     .text         .text                            src\Driver\Can\Can.o
0x8000712a 0x80007187   94 l Can_SleepMode                                PMU_PFLASH0     .text         .text                            src\Driver\Can\Can.o
0x80006fb6 0x8000707d  200 l Can_StartMode                                PMU_PFLASH0     .text         .text                            src\Driver\Can\Can.o
0x80007a44 0x80007ca5  610 l Can_StartStateEnableInt                      PMU_PFLASH0     .text         .text                            src\Driver\Can\Can.o
0x8000707e 0x80007129  172 l Can_StopMode                                 PMU_PFLASH0     .text         .text                            src\Driver\Can\Can.o
0x80006c6c 0x80006d9b  304 l Can_TxProcess                                PMU_PFLASH0     .text         .text                            src\Driver\Can\Can.o
0x80007ee8 0x80007f25   62 l Can_WakeupMode                               PMU_PFLASH0     .text         .text                            src\Driver\Can\Can.o
0x800069f6 0x80006a8f  154 g Can_Write                                    PMU_PFLASH0     .text         .text                            src\Driver\Can\Can.o
0x80007716 0x800078ed  472 l Can_WriteMb                                  PMU_PFLASH0     .text         .text                            src\Driver\Can\Can.o
0x80004118 0x8000416b   84 g Dcm_CheckMemory                              PMU_PFLASH0     .text         .text                            src\Core\Dcm\Dcm_Dsp.o
0x800047c2 0x800047f9   56 l Dcm_CheckMsgLength                           PMU_PFLASH0     .text         .text                            src\Core\Dcm\Dcm_Dsp.o
0x800040b6 0x80004117   98 g Dcm_CheckProgDependencies                    PMU_PFLASH0     .text         .text                            src\Core\Dcm\Dcm_Dsp.o
0x80004042 0x800040b5  116 g Dcm_CheckProgPreCondition                    PMU_PFLASH0     .text         .text                            src\Core\Dcm\Dcm_Dsp.o
0x8000494e 0x8000496d   32 l Dcm_CheckReqOutOfRange                       PMU_PFLASH0     .text         .text                            src\Core\Dcm\Dcm_Dsp.o
0x80004792 0x800047c1   48 l Dcm_CheckRoutineIDSession                    PMU_PFLASH0     .text         .text                            src\Core\Dcm\Dcm_Dsp.o
0x800047fa 0x80004829   48 l Dcm_CheckSecurityCondition                   PMU_PFLASH0     .text         .text                            src\Core\Dcm\Dcm_Dsp.o
0x800028f4 0x80002927   52 g Dcm_CheckSecuritySupp                        PMU_PFLASH0     .text         .text                            src\Core\Dcm\Dcm.o
0x80002808 0x8000283b   52 g Dcm_CheckSessionSupp                         PMU_PFLASH0     .text         .text                            src\Core\Dcm\Dcm.o
0x8000283c 0x80002877   60 g Dcm_CheckSessionSuppMask                     PMU_PFLASH0     .text         .text                            src\Core\Dcm\Dcm.o
0x80002878 0x800028b3   60 g Dcm_CheckSessionSuppMask_2E                  PMU_PFLASH0     .text         .text                            src\Core\Dcm\Dcm.o
0x8000482a 0x800048b9  144 l Dcm_CheckSubFuncFind                         PMU_PFLASH0     .text         .text                            src\Core\Dcm\Dcm_Dsp.o
0x80004762 0x80004791   48 l Dcm_CheckSubFuncSession                      PMU_PFLASH0     .text         .text                            src\Core\Dcm\Dcm_Dsp.o
0x8000279c 0x800027d9   62 l Dcm_ClearRxBuff                              PMU_PFLASH0     .text         .text                            src\Core\Dcm\Dcm.o
0x8000b784 0x8000b78f   12 g Dcm_ComControlRow                            PMU_PFLASH0     .rodata       .rodata                          src\Cfg\Dcm\Dcm_Cfg.o
0x800048f0 0x8000490d   30 l Dcm_ConditionCheck                           PMU_PFLASH0     .text         .text                            src\Core\Dcm\Dcm_Dsp.o
0x80004672 0x8000469f   46 l Dcm_ConvertAddress                           PMU_PFLASH0     .text         .text                            src\Core\Dcm\Dcm_Dsp.o
0x8000b7ce 0x8000b7d5    8 g Dcm_DTCSettingRow                            PMU_PFLASH0     .rodata       .rodata                          src\Cfg\Dcm\Dcm_Cfg.o
0x8000b7cc 0x8000b7cc    1 g Dcm_DownloadRow                              PMU_PFLASH0     .rodata       .rodata                          src\Cfg\Dcm\Dcm_Cfg.o
0x80002f82 0x80002fcb   74 g Dcm_DspInit                                  PMU_PFLASH0     .text         .text                            src\Core\Dcm\Dcm_Dsp.o
0x8000416c 0x80004297  300 g Dcm_EraseMemory                              PMU_PFLASH0     .text         .text                            src\Core\Dcm\Dcm_Dsp.o
0x80002f36 0x80002f41   12 g Dcm_ForcePending                             PMU_PFLASH0     .text         .text                            src\Core\Dcm\Dcm.o
0x800046a0 0x80004703  100 l Dcm_Get4Byte                                 PMU_PFLASH0     .text         .text                            src\Core\Dcm\Dcm_Dsp.o
0x800028d0 0x800028e1   18 g Dcm_GetSecurityLevel                         PMU_PFLASH0     .text         .text                            src\Core\Dcm\Dcm.o
0x800028e2 0x800028f3   18 g Dcm_GetSecurityTimerExpired                  PMU_PFLASH0     .text         .text                            src\Core\Dcm\Dcm.o
0x800027f6 0x80002807   18 g Dcm_GetSessionMode                           PMU_PFLASH0     .text         .text                            src\Core\Dcm\Dcm.o
0x8000490e 0x8000492d   32 l Dcm_HighVoltageCheck                         PMU_PFLASH0     .text         .text                            src\Core\Dcm\Dcm_Dsp.o
0x80002460 0x80002483   36 g Dcm_Init                                     PMU_PFLASH0     .text         .text                            src\Core\Dcm\Dcm.o
0x8000492e 0x8000494d   32 l Dcm_LowVoltageCheck                          PMU_PFLASH0     .text         .text                            src\Core\Dcm\Dcm_Dsp.o
0x80002516 0x80002521   12 g Dcm_MainFunction                             PMU_PFLASH0     .text         .text                            src\Core\Dcm\Dcm.o
0xd00000d8 0xd00004d7 1024 g Dcm_MainRxBuff                               DMI_DSPR        .bss          .bss                             src\Core\Dcm\Dcm.o
0xd00004d8 0xd0000527   80 g Dcm_MainTxBuff                               DMI_DSPR        .bss          .bss                             src\Core\Dcm\Dcm.o
0x80002d98 0x80002e5f  200 l Dcm_P2eTimerCheck                            PMU_PFLASH0     .text         .text                            src\Core\Dcm\Dcm.o
0x80002d08 0x80002d51   74 l Dcm_P3cTimerCheck                            PMU_PFLASH0     .text         .text                            src\Core\Dcm\Dcm.o
0x800044f8 0x8000456d  118 g Dcm_Pending2E                                PMU_PFLASH0     .text         .text                            src\Core\Dcm\Dcm_Dsp.o
0x800045ca 0x80004671  168 g Dcm_Pending31                                PMU_PFLASH0     .text         .text                            src\Core\Dcm\Dcm_Dsp.o
0x8000456e 0x800045c9   92 g Dcm_Pending36                                PMU_PFLASH0     .text         .text                            src\Core\Dcm\Dcm_Dsp.o
0x80002484 0x80002515  146 g Dcm_ProgramInit                              PMU_PFLASH0     .text         .text                            src\Core\Dcm\Dcm.o
0x80002522 0x800025bf  158 g Dcm_ProvideRxBuffer                          PMU_PFLASH0     .text         .text                            src\Core\Dcm\Dcm.o
0x80002606 0x8000266f  106 g Dcm_ProvideTxBuffer                          PMU_PFLASH0     .text         .text                            src\Core\Dcm\Dcm.o
0x8000b764 0x8000b773   16 g Dcm_ReadDidRow                               PMU_PFLASH0     .rodata       .rodata                          src\Cfg\Dcm\Dcm_Cfg.o
0x80002fcc 0x800032c1  758 g Dcm_RecvMsg10                                PMU_PFLASH0     .text         .text                            src\Core\Dcm\Dcm_Dsp.o
0x800032c2 0x80003427  358 g Dcm_RecvMsg11                                PMU_PFLASH0     .text         .text                            src\Core\Dcm\Dcm_Dsp.o
0x80003428 0x8000359d  374 g Dcm_RecvMsg22                                PMU_PFLASH0     .text         .text                            src\Core\Dcm\Dcm_Dsp.o
0x80003728 0x8000389d  374 g Dcm_RecvMsg27                                PMU_PFLASH0     .text         .text                            src\Core\Dcm\Dcm_Dsp.o
0x8000389e 0x80003a41  420 g Dcm_RecvMsg28                                PMU_PFLASH0     .text         .text                            src\Core\Dcm\Dcm_Dsp.o
0x8000359e 0x80003727  394 g Dcm_RecvMsg2E                                PMU_PFLASH0     .text         .text                            src\Core\Dcm\Dcm_Dsp.o
0x80003e40 0x80004041  514 g Dcm_RecvMsg31                                PMU_PFLASH0     .text         .text                            src\Core\Dcm\Dcm_Dsp.o
0x80003a42 0x80003c05  452 g Dcm_RecvMsg34                                PMU_PFLASH0     .text         .text                            src\Core\Dcm\Dcm_Dsp.o
0x80003c06 0x80003dc5  448 g Dcm_RecvMsg36                                PMU_PFLASH0     .text         .text                            src\Core\Dcm\Dcm_Dsp.o
0x80003dc6 0x80003e3f  122 g Dcm_RecvMsg37                                PMU_PFLASH0     .text         .text                            src\Core\Dcm\Dcm_Dsp.o
0x80004298 0x800043b3  284 g Dcm_RecvMsg3E                                PMU_PFLASH0     .text         .text                            src\Core\Dcm\Dcm_Dsp.o
0x800043b4 0x800044f7  324 g Dcm_RecvMsg85                                PMU_PFLASH0     .text         .text                            src\Core\Dcm\Dcm_Dsp.o
0x8000496e 0x80004ad9  364 l Dcm_RequestSeed                              PMU_PFLASH0     .text         .text                            src\Core\Dcm\Dcm_Dsp.o
0x8000b760 0x8000b763    4 g Dcm_ResetRow                                 PMU_PFLASH0     .rodata       .rodata                          src\Cfg\Dcm\Dcm_Cfg.o
0x80002ede 0x80002f25   72 l Dcm_ResetTimerCheck                          PMU_PFLASH0     .text         .text                            src\Core\Dcm\Dcm.o
0x8000b79c 0x8000b7cb   48 g Dcm_RoutineControlRow                        PMU_PFLASH0     .rodata       .rodata                          src\Cfg\Dcm\Dcm_Cfg.o
0x800025c0 0x80002605   70 g Dcm_RxIndication                             PMU_PFLASH0     .text         .text                            src\Core\Dcm\Dcm.o
0x8000b774 0x8000b783   16 g Dcm_SecurityRow                              PMU_PFLASH0     .rodata       .rodata                          src\Cfg\Dcm\Dcm_Cfg.o
0x80002e9e 0x80002ecb   46 l Dcm_SecurityTimerCheck                       PMU_PFLASH0     .text         .text                            src\Core\Dcm\Dcm.o
0x80004ada 0x80004c25  332 l Dcm_SendKey                                  PMU_PFLASH0     .text         .text                            src\Core\Dcm\Dcm_Dsp.o
0x800029b0 0x80002a71  194 g Dcm_SendNcr                                  PMU_PFLASH0     .text         .text                            src\Core\Dcm\Dcm.o
0x80002984 0x800029af   44 g Dcm_SendRsp                                  PMU_PFLASH0     .text         .text                            src\Core\Dcm\Dcm.o
0x800026f0 0x8000279b  172 g Dcm_ServiceFinish                            PMU_PFLASH0     .text         .text                            src\Core\Dcm\Dcm.o
0x80002ab0 0x80002c39  394 l Dcm_ServiceHandle                            PMU_PFLASH0     .text         .text                            src\Core\Dcm\Dcm.o
0x80002c3a 0x80002cdd  164 l Dcm_ServiceProcess                           PMU_PFLASH0     .text         .text                            src\Core\Dcm\Dcm.o
0x80002a72 0x80002aaf   62 l Dcm_ServiceStart                             PMU_PFLASH0     .text         .text                            src\Core\Dcm\Dcm.o
0x8000b6c4 0x8000b753  144 g Dcm_ServiceTable                             PMU_PFLASH0     .rodata       .rodata                          src\Cfg\Dcm\Dcm_Cfg.o
0x800048ba 0x800048ef   54 l Dcm_SessionChangeConditionCheck              PMU_PFLASH0     .text         .text                            src\Core\Dcm\Dcm_Dsp.o
0x8000b754 0x8000b75f   12 g Dcm_SessionRow                               PMU_PFLASH0     .rodata       .rodata                          src\Cfg\Dcm\Dcm_Cfg.o
0x80004704 0x80004761   94 l Dcm_Set4Byte                                 PMU_PFLASH0     .text         .text                            src\Core\Dcm\Dcm_Dsp.o
0x800028b4 0x800028cf   28 g Dcm_SetSecurityLevel                         PMU_PFLASH0     .text         .text                            src\Core\Dcm\Dcm.o
0x800027da 0x800027f5   28 g Dcm_SetSessionMode                           PMU_PFLASH0     .text         .text                            src\Core\Dcm\Dcm.o
0x80002d52 0x80002d83   50 l Dcm_StartP2eTimer                            PMU_PFLASH0     .text         .text                            src\Core\Dcm\Dcm.o
0x80002cde 0x80002cf3   22 g Dcm_StartP3cTimer                            PMU_PFLASH0     .text         .text                            src\Core\Dcm\Dcm.o
0x80002954 0x80002983   48 g Dcm_StartResetTimer                          PMU_PFLASH0     .text         .text                            src\Core\Dcm\Dcm.o
0x80002928 0x80002953   44 g Dcm_StartSecurityTimer                       PMU_PFLASH0     .text         .text                            src\Core\Dcm\Dcm.o
0x80002e60 0x80002e9d   62 l Dcm_StartTransmit                            PMU_PFLASH0     .text         .text                            src\Core\Dcm\Dcm.o
0x80002d84 0x80002d97   20 l Dcm_StopP2eTimer                             PMU_PFLASH0     .text         .text                            src\Core\Dcm\Dcm.o
0x80002cf4 0x80002d07   20 l Dcm_StopP3cTimer                             PMU_PFLASH0     .text         .text                            src\Core\Dcm\Dcm.o
0x80002ecc 0x80002edd   18 l Dcm_StopResetTimer                           PMU_PFLASH0     .text         .text                            src\Core\Dcm\Dcm.o
0x80002f26 0x80002f35   16 l Dcm_TimerProc                                PMU_PFLASH0     .text         .text                            src\Core\Dcm\Dcm.o
0x80002670 0x800026ef  128 g Dcm_TxConfirmation                           PMU_PFLASH0     .text         .text                            src\Core\Dcm\Dcm.o
0x8000b790 0x8000b79b   12 g Dcm_WriteDidRow                              PMU_PFLASH0     .rodata       .rodata                          src\Cfg\Dcm\Dcm_Cfg.o
0x8000b7cd 0x8000b7cd    1 g Dcm_testPresentRow                           PMU_PFLASH0     .rodata       .rodata                          src\Cfg\Dcm\Dcm_Cfg.o
0x8000b7d8 0x8000b813   60 g FL_BlkInfo                                   PMU_PFLASH0     .rodata       .rodata                          src\Cfg\FL\FL_Cfg.o
0x80005ace 0x80005c6f  418 l FL_CheckDownloadSegment                      PMU_PFLASH0     .text         .text                            src\Core\Fl\FL.o
0x80004faa 0x80004fc1   24 g FL_CheckProgPreCondition                     PMU_PFLASH0     .text         .text                            src\Core\Fl\FL.o
0x8000509a 0x80005113  122 g FL_CheckSumRoutine                           PMU_PFLASH0     .text         .text                            src\Core\Fl\FL.o
0x8000617c 0x800062d1  342 l FL_CheckSuming                               PMU_PFLASH0     .text         .text                            src\Core\Fl\FL.o
0x80005c70 0x80005d49  218 l FL_DownloadRemainData                        PMU_PFLASH0     .text         .text                            src\Core\Fl\FL.o
0x800052c4 0x80005435  370 g FL_DownloadRequestValid                      PMU_PFLASH0     .text         .text                            src\Core\Fl\FL.o
0x80005114 0x800052c3  432 g FL_EraseRoutine                              PMU_PFLASH0     .text         .text                            src\Core\Fl\FL.o
0x800057ce 0x80005acd  768 l FL_Erasing                                   PMU_PFLASH0     .text         .text                            src\Core\Fl\FL.o
0x80005582 0x800055cf   78 g FL_ExitTransferData                          PMU_PFLASH0     .text         .text                            src\Core\Fl\FL.o
0x80005436 0x80005581  332 g FL_FlashProgramRegion                        PMU_PFLASH0     .text         .text                            src\Core\Fl\FL.o
0x80005d4a 0x80005e6d  292 l FL_HandleRemainData                          PMU_PFLASH0     .text         .text                            src\Core\Fl\FL.o
0x80004c26 0x80004cb3  142 g FL_InitState                                 PMU_PFLASH0     .text         .text                            src\Core\Fl\FL.o
0x80005630 0x800056a7  120 g FL_MainFunction                              PMU_PFLASH0     .text         .text                            src\Core\Fl\FL.o
0xd0000578 0xd00005e3  108 g FL_NvmInfo                                   DMI_DSPR        .bss          .bss                             src\Core\Fl\FL.o
0x8000613c 0x8000617b   64 l FL_Programming                               PMU_PFLASH0     .text         .text                            src\Core\Fl\FL.o
0x80005e6e 0x8000613b  718 l FL_ProgrammingData                           PMU_PFLASH0     .text         .text                            src\Core\Fl\FL.o
0x80004cfc 0x80004d5f  100 g FL_ReadBootSWReferenceNumber                 PMU_PFLASH0     .text         .text                            src\Core\Fl\FL.o
0x80004d60 0x80004e1b  188 g FL_ReadFingerPrint                           PMU_PFLASH0     .text         .text                            src\Core\Fl\FL.o
0x80004e82 0x80004fa9  296 g FL_ReadMemory                                PMU_PFLASH0     .text         .text                            src\Core\Fl\FL.o
0x80004cd8 0x80004cfb   36 g FL_ReadProgAttemptCounter                    PMU_PFLASH0     .text         .text                            src\Core\Fl\FL.o
0x80004cb4 0x80004cd7   36 g FL_ReadProgCounter                           PMU_PFLASH0     .text         .text                            src\Core\Fl\FL.o
0x80004e1c 0x80004e81  102 g FL_ReadSysECUHWVer                           PMU_PFLASH0     .text         .text                            src\Core\Fl\FL.o
0xd00005e4 0xd00005eb    8 l FL_RemainDataStruct                          DMI_DSPR        .bss          .bss                             src\Core\Fl\FL.o
0x800055d0 0x8000562f   96 g FL_ServiceFinished                           PMU_PFLASH0     .text         .text                            src\Core\Fl\FL.o
0x800056a8 0x800057cd  294 l FL_UpdateNvm                                 PMU_PFLASH0     .text         .text                            src\Core\Fl\FL.o
0x8000501c 0x80005099  126 g FL_WriteFingerPrint                          PMU_PFLASH0     .text         .text                            src\Core\Fl\FL.o
0x80004fc2 0x8000501b   90 g FL_WriteRepairShopCode                       PMU_PFLASH0     .text         .text                            src\Core\Fl\FL.o
0x800062d2 0x80006385  180 g FL_updateProgCnt                             PMU_PFLASH0     .text         .text                            src\Core\Fl\FL.o
0xd00007f0 0xd00008ef  256 l FlProgramData                                DMI_DSPR        .bss          .bss                             src\Core\Fl\FL.o
0xd00008f0 0xd00008f3    4 l FlProgramLength                              DMI_DSPR        .bss          .bss                             src\Core\Fl\FL.o
0x80006386 0x80006399   20 g Fl_GetActiveJob                              PMU_PFLASH0     .text         .text                            src\Core\Fl\FL.o
0x8000812c 0x8000815f   52 g FlashReadByte                                PMU_PFLASH0     .text         .text                            src\Driver\Fls\Fls.o
0x80008160 0x800081a9   74 g FlashReadMemory                              PMU_PFLASH0     .text         .text                            src\Driver\Fls\Fls.o
0xd00005ec 0xd00007ef  516 l FldownloadStatus                             DMI_DSPR        .bss          .bss                             src\Core\Fl\FL.o
0xd0000068 0xd0000068    1 g FunctService255                              DMI_DSPR        .bss          .bss                             src\Core\Appl\Appl.o
0x8000bc9c 0x8000bca7   12 l Mcal_CpuAddressMap                           PMU_PFLASH0     .rodata       .rodata                          src\Driver\includes\Mcal_TcLib.o
0x8000b1c0 0x8000b1f3   52 g Mcal_CpuWdtCheckAccess                       PMU_PFLASH0     .text         .text                            src\Driver\includes\Mcal_WdgLib.o
0x8000b170 0x8000b1a3   52 g Mcal_CpuWdtModifyAccess                      PMU_PFLASH0     .text         .text                            src\Driver\includes\Mcal_WdgLib.o
0x8000b20c 0x8000b23b   48 g Mcal_CpuWdtPwSequence                        PMU_PFLASH0     .text         .text                            src\Driver\includes\Mcal_WdgLib.o
0x8000a1c4 0x8000a2c7  260 g Mcal_DmaCfgNoOfMovesPerTransfer              PMU_PFLASH0     .text         .text                            src\Driver\includes\Mcal_DmaLib.o
0x8000a148 0x8000a1c3  124 g Mcal_DmaDisableIntr                          PMU_PFLASH0     .text         .text                            src\Driver\includes\Mcal_DmaLib.o
0x8000a0f8 0x8000a147   80 g Mcal_DmaEnableIntr                           PMU_PFLASH0     .text         .text                            src\Driver\includes\Mcal_DmaLib.o
0x8000a31a 0x8000a335   28 g Mcal_GetCoreId                               PMU_PFLASH0     .text         .text                            src\Driver\includes\Mcal_TcLib.o
0x8000a408 0x8000a431   42 l Mcal_GetCpuAddress                           PMU_PFLASH0     .text         .text                            src\Driver\includes\Mcal_TcLib.o
0x8000a336 0x8000a407  210 g Mcal_GetDsprReMapAddress                     PMU_PFLASH0     .text         .text                            src\Driver\includes\Mcal_TcLib.o
0x8000a518 0x8000a573   92 g Mcal_GetSpinLock                             PMU_PFLASH0     .text         .text                            src\Driver\includes\Mcal_TcLib.o
0xd0000a04 0xd0000a0f   12 l Mcal_IntDisableCounter                       DMI_DSPR        .bss          .bss                             src\Driver\includes\Mcal_TcLib.o
0xd0000034 0xd000003f   12 l Mcal_IntDisableCounterRedn                   DMI_DSPR        .data         .data                            src\Driver\includes\Mcal_TcLib.o
0x8000a4d0 0x8000a4fd   46 g Mcal_LockResource                            PMU_PFLASH0     .text         .text                            src\Driver\includes\Mcal_TcLib.o
0x8000a574 0x8000a58d   26 g Mcal_ReleaseSpinLock                         PMU_PFLASH0     .text         .text                            src\Driver\includes\Mcal_TcLib.o
0x8000a976 0x8000aa99  292 g Mcal_ResetCpuENDINIT                         PMU_PFLASH0     .text         .text                            src\Driver\includes\Mcal_WdgLib.o
0x8000adea 0x8000aeb1  200 g Mcal_ResetENDINIT                            PMU_PFLASH0     .text         .text                            src\Driver\includes\Mcal_WdgLib.o
0xd0000a10 0xd0000a1b   12 l Mcal_ResetEndInitCounter                     DMI_DSPR        .bss          .bss                             src\Driver\includes\Mcal_WdgLib.o
0xd0000040 0xd000004b   12 l Mcal_ResetEndInitCounterRedn                 DMI_DSPR        .data         .data                            src\Driver\includes\Mcal_WdgLib.o
0x8000b092 0x8000b101  112 g Mcal_ResetSafetyENDINIT_Timed                PMU_PFLASH0     .text         .text                            src\Driver\includes\Mcal_WdgLib.o
0x8000a690 0x8000a783  244 g Mcal_ResumeAllInterrupts                     PMU_PFLASH0     .text         .text                            src\Driver\includes\Mcal_TcLib.o
0x8000a0d2 0x8000a0f5   36 g Mcal_SafeErrorHandler                        PMU_PFLASH0     .text         .text                            src\Driver\includes\Mcal.o
0x8000b1a4 0x8000b1bf   28 g Mcal_SafetyCheckAccess                       PMU_PFLASH0     .text         .text                            src\Driver\includes\Mcal_WdgLib.o
0x8000b154 0x8000b16f   28 g Mcal_SafetyModifyAccess                      PMU_PFLASH0     .text         .text                            src\Driver\includes\Mcal_WdgLib.o
0x8000b1f4 0x8000b20b   24 g Mcal_SafetyPwSequence                        PMU_PFLASH0     .text         .text                            src\Driver\includes\Mcal_WdgLib.o
0xd0000a1c 0xd0000a1f    4 l Mcal_SafetyResetEndInitCounter               DMI_DSPR        .bss          .bss                             src\Driver\includes\Mcal_WdgLib.o
0xd000004c 0xd000004f    4 l Mcal_SafetyResetEndInitCounterRedn           DMI_DSPR        .data         .data                            src\Driver\includes\Mcal_WdgLib.o
0xd00009f8 0xd0000a03   12 l Mcal_SavedIntState                           DMI_DSPR        .bss          .bss                             src\Driver\includes\Mcal_TcLib.o
0xd0000028 0xd0000033   12 l Mcal_SavedIntStateRedn                       DMI_DSPR        .data         .data                            src\Driver\includes\Mcal_TcLib.o
0x8000aa9a 0x8000abe9  336 g Mcal_SetCpuENDINIT                           PMU_PFLASH0     .text         .text                            src\Driver\includes\Mcal_WdgLib.o
0x8000a432 0x8000a469   56 g Mcal_SetCpuPC                                PMU_PFLASH0     .text         .text                            src\Driver\includes\Mcal_TcLib.o
0x8000af24 0x8000b011  238 g Mcal_SetENDINIT                              PMU_PFLASH0     .text         .text                            src\Driver\includes\Mcal_WdgLib.o
0x8000a7b8 0x8000a857  160 g Mcal_SetRegValSV                             PMU_PFLASH0     .text         .text                            src\Driver\includes\Mcal_TcLib.o
0x8000b102 0x8000b153   82 g Mcal_SetSafetyENDINIT_Timed                  PMU_PFLASH0     .text         .text                            src\Driver\includes\Mcal_WdgLib.o
0x8000a46a 0x8000a4cf  102 g Mcal_StartCore                               PMU_PFLASH0     .text         .text                            src\Driver\includes\Mcal_TcLib.o
0x8000a58e 0x8000a68f  258 g Mcal_SuspendAllInterrupts                    PMU_PFLASH0     .text         .text                            src\Driver\includes\Mcal_TcLib.o
0x8000a4fe 0x8000a517   26 g Mcal_UnlockResource                          PMU_PFLASH0     .text         .text                            src\Driver\includes\Mcal_TcLib.o
0x8000a784 0x8000a7b7   52 g Mcal_UpdateRegSV                             PMU_PFLASH0     .text         .text                            src\Driver\includes\Mcal_TcLib.o
0xd0000a20 0xd0000a23    4 l Mcal_WdgSafetyEndInitSem                     DMI_DSPR        .bss          .bss                             src\Driver\includes\Mcal_WdgLib.o
0xd0000050 0xd0000053    4 l Mcal_WdgSafetyEndInitSemRedn                 DMI_DSPR        .data         .data                            src\Driver\includes\Mcal_WdgLib.o
0x8000ad46 0x8000ade9  164 l Mcal_lCpuCheckAccess                         PMU_PFLASH0     .text         .text                            src\Driver\includes\Mcal_WdgLib.o
0x8000abea 0x8000ad45  348 l Mcal_lCpuModifyAccess                        PMU_PFLASH0     .text         .text                            src\Driver\includes\Mcal_WdgLib.o
0x8000a858 0x8000a90d  182 l Mcal_lCpuPwSequence                          PMU_PFLASH0     .text         .text                            src\Driver\includes\Mcal_WdgLib.o
0x8000a90e 0x8000a975  104 l Mcal_lCpuRelValue                            PMU_PFLASH0     .text         .text                            src\Driver\includes\Mcal_WdgLib.o
0x8000aeb2 0x8000af23  114 l Mcal_lResetSafetyENDINIT                     PMU_PFLASH0     .text         .text                            src\Driver\includes\Mcal_WdgLib.o
0x8000b012 0x8000b091  128 l Mcal_lSetSafetyENDINIT                       PMU_PFLASH0     .text         .text                            src\Driver\includes\Mcal_WdgLib.o
0xd00009f4 0xd00009f4    1 g Mcu_ClockSetting                             DMI_DSPR        .bss          .bss                             src\Driver\MCU\Mcu.o
0x8000b864 0x8000b87b   24 g Mcu_ConfigRoot                               PMU_PFLASH0     .rodata       .rodata                          src\Cfg\Mcu\Mcu_PBCfg.o
0x8000829a 0x8000830f  118 g Mcu_DeInit                                   PMU_PFLASH0     .text         .text                            src\Driver\MCU\Mcu.o
0x8000898e 0x80008ccb  830 g Mcu_DistributePllClock                       PMU_PFLASH0     .text         .text                            src\Driver\MCU\Mcu.o
0x80008ccc 0x80008ced   34 g Mcu_GetPllStatus                             PMU_PFLASH0     .text         .text                            src\Driver\MCU\Mcu.o
0x80008d22 0x80008d3d   28 g Mcu_GetResetRawValue                         PMU_PFLASH0     .text         .text                            src\Driver\MCU\Mcu.o
0x80008cee 0x80008d21   52 g Mcu_GetResetReason                           PMU_PFLASH0     .text         .text                            src\Driver\MCU\Mcu.o
0x800081aa 0x80008299  240 g Mcu_Init                                     PMU_PFLASH0     .text         .text                            src\Driver\MCU\Mcu.o
0x80008326 0x8000898d 1640 g Mcu_InitClock                                PMU_PFLASH0     .text         .text                            src\Driver\MCU\Mcu.o
0x80008310 0x80008325   22 g Mcu_InitRamSection                           PMU_PFLASH0     .text         .text                            src\Driver\MCU\Mcu.o
0x80008d3e 0x80008d8f   82 g Mcu_PerformReset                             PMU_PFLASH0     .text         .text                            src\Driver\MCU\Mcu.o
0xd0000020 0xd0000023    4 g Mcu_ResetStatusVal                           DMI_DSPR        .data         .data                            src\Driver\MCU\Mcu.o
0x80008d90 0x80008dd1   66 g Mcu_SetMode                                  PMU_PFLASH0     .text         .text                            src\Driver\MCU\Mcu.o
0x8000b814 0x8000b863   80 l Mcu_kClockConfiguration0                     PMU_PFLASH0     .rodata       .rodata                          src\Cfg\Mcu\Mcu_PBCfg.o
0xd00009f0 0xd00009f3    4 g Mcu_kConfigPtr                               DMI_DSPR        .bss          .bss                             src\Driver\MCU\Mcu.o
0x800090fc 0x80009117   28 g Mcu_lDmaDeInit                               PMU_PFLASH0     .text         .text                            src\Driver\MCU\Mcu_Dma.o
0x800090b4 0x800090fb   72 g Mcu_lDmaInit                                 PMU_PFLASH0     .text         .text                            src\Driver\MCU\Mcu_Dma.o
0x80009532 0x800097a1  624 l Mcu_lErayPllClockInit                        PMU_PFLASH0     .text         .text                            src\Driver\MCU\Mcu_Platform.o
0x800097a2 0x800097e7   70 l Mcu_lErayPllWaitVcoLock                      PMU_PFLASH0     .text         .text                            src\Driver\MCU\Mcu_Platform.o
0x800093a0 0x800093d9   58 l Mcu_lFindResetReason                         PMU_PFLASH0     .text         .text                            src\Driver\MCU\Mcu_Platform.o
0x800093da 0x80009531  344 g Mcu_lGetPlatformRstReason                    PMU_PFLASH0     .text         .text                            src\Driver\MCU\Mcu_Platform.o
0x800097e8 0x8000984f  104 l Mcu_lHandleStandbyRAM                        PMU_PFLASH0     .text         .text                            src\Driver\MCU\Mcu_Platform.o
0x80009118 0x8000939f  648 g Mcu_lPlatformInit                            PMU_PFLASH0     .text         .text                            src\Driver\MCU\Mcu_Platform.o
0x80009850 0x800098c5  118 g Mcu_lSetIdleMode                             PMU_PFLASH0     .text         .text                            src\Driver\MCU\Mcu_Platform.o
0x800098c6 0x8000993b  118 g Mcu_lSetSleepMode                            PMU_PFLASH0     .text         .text                            src\Driver\MCU\Mcu_Platform.o
0x8000993c 0x80009c9f  868 g Mcu_lSetStandbyMode                          PMU_PFLASH0     .text         .text                            src\Driver\MCU\Mcu_Platform.o
0x80008dd2 0x800090b3  738 l Mcu_lSwitchToBackupClock                     PMU_PFLASH0     .text         .text                            src\Driver\MCU\Mcu.o
0x80002f42 0x80002f81   64 g PosResponse255                               PMU_PFLASH0     .text         .text                            src\Core\Dcm\Dcm.o
0xf0036100 0xf0036100    0 l SCU_WDTCPU0CON0                              *ABS*           *ABS*         *ABS*                            *ABS*
0xf0036104 0xf0036104    0 l SCU_WDTCPU0CON1                              *ABS*           *ABS*         *ABS*                            *ABS*
0xf00360f0 0xf00360f0    0 l SCU_WDTSCON0                                 *ABS*           *ABS*         *ABS*                            *ABS*
0xf00360f4 0xf00360f4    0 l SCU_WDTSCON1                                 *ABS*           *ABS*         *ABS*                            *ABS*
0x80009d6c 0x80009dc3   88 g STM_Deinit                                   PMU_PFLASH0     .text         .text                            src\Driver\Stm\STM.o
0x80009dc4 0x80009e61  158 g STM_GetFlag                                  PMU_PFLASH0     .text         .text                            src\Driver\Stm\STM.o
0x80009ca0 0x80009d6b  204 g STM_Init                                     PMU_PFLASH0     .text         .text                            src\Driver\Stm\STM.o
0x8000b24c 0x8000b24f    4 g SchM_Enter_Adc_DisableHwTrig                 PMU_PFLASH0     .text         .text                            src\Driver\includes\SchM.o
0x8000b248 0x8000b24b    4 g SchM_Enter_Adc_EnableHwTrig                  PMU_PFLASH0     .text         .text                            src\Driver\includes\SchM.o
0x8000b250 0x8000b253    4 g SchM_Enter_Adc_GetGrpStatus                  PMU_PFLASH0     .text         .text                            src\Driver\includes\SchM.o
0x8000b254 0x8000b257    4 g SchM_Enter_Adc_GetStreamLastPtr              PMU_PFLASH0     .text         .text                            src\Driver\includes\SchM.o
0x8000b268 0x8000b26b    4 g SchM_Enter_Adc_PopQueue                      PMU_PFLASH0     .text         .text                            src\Driver\includes\SchM.o
0x8000b264 0x8000b267    4 g SchM_Enter_Adc_PushQueue                     PMU_PFLASH0     .text         .text                            src\Driver\includes\SchM.o
0x8000b244 0x8000b247    4 g SchM_Enter_Adc_ReadGroup                     PMU_PFLASH0     .text         .text                            src\Driver\includes\SchM.o
0x8000b260 0x8000b263    4 g SchM_Enter_Adc_ScheduleNext                  PMU_PFLASH0     .text         .text                            src\Driver\includes\SchM.o
0x8000b258 0x8000b25b    4 g SchM_Enter_Adc_ScheduleStart                 PMU_PFLASH0     .text         .text                            src\Driver\includes\SchM.o
0x8000b25c 0x8000b25f    4 g SchM_Enter_Adc_ScheduleStop                  PMU_PFLASH0     .text         .text                            src\Driver\includes\SchM.o
0x8000b23c 0x8000b23f    4 g SchM_Enter_Adc_StartGroup                    PMU_PFLASH0     .text         .text                            src\Driver\includes\SchM.o
0x8000b240 0x8000b243    4 g SchM_Enter_Adc_StopGroup                     PMU_PFLASH0     .text         .text                            src\Driver\includes\SchM.o
0x8000b2cc 0x8000b2cf    4 g SchM_Enter_Can_17_MCanP_CanDisInt            PMU_PFLASH0     .text         .text                            src\Driver\includes\SchM.o
0x8000b2d4 0x8000b2d7    4 g SchM_Enter_Can_17_MCanP_CanEnInt             PMU_PFLASH0     .text         .text                            src\Driver\includes\SchM.o
0x8000b2dc 0x8000b2df    4 g SchM_Enter_Can_17_MCanP_CanWrMO              PMU_PFLASH0     .text         .text                            src\Driver\includes\SchM.o
0x8000b3a4 0x8000b3a7    4 g SchM_Enter_Eth_17_EthMac_ProvideTxBuffer     PMU_PFLASH0     .text         .text                            src\Driver\includes\SchM.o
0x8000b3ac 0x8000b3af    4 g SchM_Enter_Eth_17_EthMac_SetControllerMode   PMU_PFLASH0     .text         .text                            src\Driver\includes\SchM.o
0x8000b39c 0x8000b39f    4 g SchM_Enter_Eth_17_EthMac_Transmit            PMU_PFLASH0     .text         .text                            src\Driver\includes\SchM.o
0x8000b3b4 0x8000b3b7    4 g SchM_Enter_Eth_17_EthMac_TxRxIrqHandler      PMU_PFLASH0     .text         .text                            src\Driver\includes\SchM.o
0x8000b384 0x8000b387    4 g SchM_Enter_FlsLoader_Erase                   PMU_PFLASH0     .text         .text                            src\Driver\includes\SchM.o
0x8000b388 0x8000b38b    4 g SchM_Enter_FlsLoader_Write                   PMU_PFLASH0     .text         .text                            src\Driver\includes\SchM.o
0x8000b38c 0x8000b38f    4 g SchM_Enter_FlsLoader_lLock                   PMU_PFLASH0     .text         .text                            src\Driver\includes\SchM.o
0x8000b364 0x8000b367    4 g SchM_Enter_Fls_17_Pmu_Erase                  PMU_PFLASH0     .text         .text                            src\Driver\includes\SchM.o
0x8000b35c 0x8000b35f    4 g SchM_Enter_Fls_17_Pmu_Init                   PMU_PFLASH0     .text         .text                            src\Driver\includes\SchM.o
0x8000b374 0x8000b377    4 g SchM_Enter_Fls_17_Pmu_Main                   PMU_PFLASH0     .text         .text                            src\Driver\includes\SchM.o
0x8000b37c 0x8000b37f    4 g SchM_Enter_Fls_17_Pmu_ResumeErase            PMU_PFLASH0     .text         .text                            src\Driver\includes\SchM.o
0x8000b36c 0x8000b36f    4 g SchM_Enter_Fls_17_Pmu_Write                  PMU_PFLASH0     .text         .text                            src\Driver\includes\SchM.o
0x8000b2e4 0x8000b2e7    4 g SchM_Enter_Fr_17_Eray_ControllerInit         PMU_PFLASH0     .text         .text                            src\Driver\includes\SchM.o
0x8000b2ec 0x8000b2ef    4 g SchM_Enter_Fr_17_Eray_SetWakeupChannel       PMU_PFLASH0     .text         .text                            src\Driver\includes\SchM.o
0x8000b2b4 0x8000b2b7    4 g SchM_Enter_Icu_17_GtmCcu6_Ccu6IenUpdate      PMU_PFLASH0     .text         .text                            src\Driver\includes\SchM.o
0x8000b2bc 0x8000b2bf    4 g SchM_Enter_Icu_17_GtmCcu6_CcuInterruptHandle PMU_PFLASH0     .text         .text                            src\Driver\includes\SchM.o
0x8000b2c4 0x8000b2c7    4 g SchM_Enter_Icu_17_GtmCcu6_CcuVariableupdate  PMU_PFLASH0     .text         .text                            src\Driver\includes\SchM.o
0x8000b2a4 0x8000b2a7    4 g SchM_Enter_Icu_17_GtmCcu6_EnableNotification PMU_PFLASH0     .text         .text                            src\Driver\includes\SchM.o
0x8000b29c 0x8000b29f    4 g SchM_Enter_Icu_17_GtmCcu6_EnableWakeup       PMU_PFLASH0     .text         .text                            src\Driver\includes\SchM.o
0x8000b2ac 0x8000b2af    4 g SchM_Enter_Icu_17_GtmCcu6_ResetEdgeCount     PMU_PFLASH0     .text         .text                            src\Driver\includes\SchM.o
0x8000b2fc 0x8000b2ff    4 g SchM_Enter_Spi_AsyncTransmit                 PMU_PFLASH0     .text         .text                            src\Driver\includes\SchM.o
0x8000b30c 0x8000b30f    4 g SchM_Enter_Spi_Cancel                        PMU_PFLASH0     .text         .text                            src\Driver\includes\SchM.o
0x8000b31c 0x8000b31f    4 g SchM_Enter_Spi_DeInit                        PMU_PFLASH0     .text         .text                            src\Driver\includes\SchM.o
0x8000b304 0x8000b307    4 g SchM_Enter_Spi_GetSequenceResult             PMU_PFLASH0     .text         .text                            src\Driver\includes\SchM.o
0x8000b314 0x8000b317    4 g SchM_Enter_Spi_Init                          PMU_PFLASH0     .text         .text                            src\Driver\includes\SchM.o
0x8000b324 0x8000b327    4 g SchM_Enter_Spi_SyncTransmit                  PMU_PFLASH0     .text         .text                            src\Driver\includes\SchM.o
0x8000b2f4 0x8000b2f7    4 g SchM_Enter_Spi_WriteIB                       PMU_PFLASH0     .text         .text                            src\Driver\includes\SchM.o
0x8000b334 0x8000b337    4 g SchM_Enter_Wdg_17_Scu_ChangeMode             PMU_PFLASH0     .text         .text                            src\Driver\includes\SchM.o
0x8000b338 0x8000b33b    4 g SchM_Enter_Wdg_17_Scu_SafetyInit             PMU_PFLASH0     .text         .text                            src\Driver\includes\SchM.o
0x8000b340 0x8000b343    4 g SchM_Enter_Wdg_17_Scu_SafetyOffMode          PMU_PFLASH0     .text         .text                            src\Driver\includes\SchM.o
0x8000b33c 0x8000b33f    4 g SchM_Enter_Wdg_17_Scu_SafetyTrigger          PMU_PFLASH0     .text         .text                            src\Driver\includes\SchM.o
0x8000b32c 0x8000b32f    4 g SchM_Enter_Wdg_17_Scu_TimerHandling          PMU_PFLASH0     .text         .text                            src\Driver\includes\SchM.o
0x8000b330 0x8000b333    4 g SchM_Enter_Wdg_17_Scu_Trigger                PMU_PFLASH0     .text         .text                            src\Driver\includes\SchM.o
0x8000b27c 0x8000b27f    4 g SchM_Exit_Adc_DisableHwTrig                  PMU_PFLASH0     .text         .text                            src\Driver\includes\SchM.o
0x8000b278 0x8000b27b    4 g SchM_Exit_Adc_EnableHwTrig                   PMU_PFLASH0     .text         .text                            src\Driver\includes\SchM.o
0x8000b280 0x8000b283    4 g SchM_Exit_Adc_GetGrpStatus                   PMU_PFLASH0     .text         .text                            src\Driver\includes\SchM.o
0x8000b284 0x8000b287    4 g SchM_Exit_Adc_GetStreamLastPtr               PMU_PFLASH0     .text         .text                            src\Driver\includes\SchM.o
0x8000b298 0x8000b29b    4 g SchM_Exit_Adc_PopQueue                       PMU_PFLASH0     .text         .text                            src\Driver\includes\SchM.o
0x8000b294 0x8000b297    4 g SchM_Exit_Adc_PushQueue                      PMU_PFLASH0     .text         .text                            src\Driver\includes\SchM.o
0x8000b274 0x8000b277    4 g SchM_Exit_Adc_ReadGroup                      PMU_PFLASH0     .text         .text                            src\Driver\includes\SchM.o
0x8000b290 0x8000b293    4 g SchM_Exit_Adc_ScheduleNext                   PMU_PFLASH0     .text         .text                            src\Driver\includes\SchM.o
0x8000b288 0x8000b28b    4 g SchM_Exit_Adc_ScheduleStart                  PMU_PFLASH0     .text         .text                            src\Driver\includes\SchM.o
0x8000b28c 0x8000b28f    4 g SchM_Exit_Adc_ScheduleStop                   PMU_PFLASH0     .text         .text                            src\Driver\includes\SchM.o
0x8000b26c 0x8000b26f    4 g SchM_Exit_Adc_StartGroup                     PMU_PFLASH0     .text         .text                            src\Driver\includes\SchM.o
0x8000b270 0x8000b273    4 g SchM_Exit_Adc_StopGroup                      PMU_PFLASH0     .text         .text                            src\Driver\includes\SchM.o
0x8000b2d0 0x8000b2d3    4 g SchM_Exit_Can_17_MCanP_CanDisInt             PMU_PFLASH0     .text         .text                            src\Driver\includes\SchM.o
0x8000b2d8 0x8000b2db    4 g SchM_Exit_Can_17_MCanP_CanEnInt              PMU_PFLASH0     .text         .text                            src\Driver\includes\SchM.o
0x8000b2e0 0x8000b2e3    4 g SchM_Exit_Can_17_MCanP_CanWrMO               PMU_PFLASH0     .text         .text                            src\Driver\includes\SchM.o
0x8000b3a8 0x8000b3ab    4 g SchM_Exit_Eth_17_EthMac_ProvideTxBuffer      PMU_PFLASH0     .text         .text                            src\Driver\includes\SchM.o
0x8000b3b0 0x8000b3b3    4 g SchM_Exit_Eth_17_EthMac_SetControllerMode    PMU_PFLASH0     .text         .text                            src\Driver\includes\SchM.o
0x8000b3a0 0x8000b3a3    4 g SchM_Exit_Eth_17_EthMac_Transmit             PMU_PFLASH0     .text         .text                            src\Driver\includes\SchM.o
0x8000b3b8 0x8000b3bb    4 g SchM_Exit_Eth_17_EthMac_TxRxIrqHandler       PMU_PFLASH0     .text         .text                            src\Driver\includes\SchM.o
0x8000b398 0x8000b39b    4 g SchM_Exit_FlsLoader_Erase                    PMU_PFLASH0     .text         .text                            src\Driver\includes\SchM.o
0x8000b394 0x8000b397    4 g SchM_Exit_FlsLoader_Write                    PMU_PFLASH0     .text         .text                            src\Driver\includes\SchM.o
0x8000b390 0x8000b393    4 g SchM_Exit_FlsLoader_lLock                    PMU_PFLASH0     .text         .text                            src\Driver\includes\SchM.o
0x8000b368 0x8000b36b    4 g SchM_Exit_Fls_17_Pmu_Erase                   PMU_PFLASH0     .text         .text                            src\Driver\includes\SchM.o
0x8000b360 0x8000b363    4 g SchM_Exit_Fls_17_Pmu_Init                    PMU_PFLASH0     .text         .text                            src\Driver\includes\SchM.o
0x8000b378 0x8000b37b    4 g SchM_Exit_Fls_17_Pmu_Main                    PMU_PFLASH0     .text         .text                            src\Driver\includes\SchM.o
0x8000b380 0x8000b383    4 g SchM_Exit_Fls_17_Pmu_ResumeErase             PMU_PFLASH0     .text         .text                            src\Driver\includes\SchM.o
0x8000b370 0x8000b373    4 g SchM_Exit_Fls_17_Pmu_Write                   PMU_PFLASH0     .text         .text                            src\Driver\includes\SchM.o
0x8000b2e8 0x8000b2eb    4 g SchM_Exit_Fr_17_Eray_ControllerInit          PMU_PFLASH0     .text         .text                            src\Driver\includes\SchM.o
0x8000b2f0 0x8000b2f3    4 g SchM_Exit_Fr_17_Eray_SetWakeupChannel        PMU_PFLASH0     .text         .text                            src\Driver\includes\SchM.o
0x8000b2b8 0x8000b2bb    4 g SchM_Exit_Icu_17_GtmCcu6_Ccu6IenUpdate       PMU_PFLASH0     .text         .text                            src\Driver\includes\SchM.o
0x8000b2c0 0x8000b2c3    4 g SchM_Exit_Icu_17_GtmCcu6_CcuInterruptHandle  PMU_PFLASH0     .text         .text                            src\Driver\includes\SchM.o
0x8000b2c8 0x8000b2cb    4 g SchM_Exit_Icu_17_GtmCcu6_CcuVariableupdate   PMU_PFLASH0     .text         .text                            src\Driver\includes\SchM.o
0x8000b2a8 0x8000b2ab    4 g SchM_Exit_Icu_17_GtmCcu6_EnableNotification  PMU_PFLASH0     .text         .text                            src\Driver\includes\SchM.o
0x8000b2a0 0x8000b2a3    4 g SchM_Exit_Icu_17_GtmCcu6_EnableWakeup        PMU_PFLASH0     .text         .text                            src\Driver\includes\SchM.o
0x8000b2b0 0x8000b2b3    4 g SchM_Exit_Icu_17_GtmCcu6_ResetEdgeCount      PMU_PFLASH0     .text         .text                            src\Driver\includes\SchM.o
0x8000b300 0x8000b303    4 g SchM_Exit_Spi_AsyncTransmit                  PMU_PFLASH0     .text         .text                            src\Driver\includes\SchM.o
0x8000b310 0x8000b313    4 g SchM_Exit_Spi_Cancel                         PMU_PFLASH0     .text         .text                            src\Driver\includes\SchM.o
0x8000b320 0x8000b323    4 g SchM_Exit_Spi_DeInit                         PMU_PFLASH0     .text         .text                            src\Driver\includes\SchM.o
0x8000b308 0x8000b30b    4 g SchM_Exit_Spi_GetSequenceResult              PMU_PFLASH0     .text         .text                            src\Driver\includes\SchM.o
0x8000b318 0x8000b31b    4 g SchM_Exit_Spi_Init                           PMU_PFLASH0     .text         .text                            src\Driver\includes\SchM.o
0x8000b328 0x8000b32b    4 g SchM_Exit_Spi_SyncTransmit                   PMU_PFLASH0     .text         .text                            src\Driver\includes\SchM.o
0x8000b2f8 0x8000b2fb    4 g SchM_Exit_Spi_WriteIB                        PMU_PFLASH0     .text         .text                            src\Driver\includes\SchM.o
0x8000b34c 0x8000b34f    4 g SchM_Exit_Wdg_17_Scu_ChangeMode              PMU_PFLASH0     .text         .text                            src\Driver\includes\SchM.o
0x8000b350 0x8000b353    4 g SchM_Exit_Wdg_17_Scu_SafetyInit              PMU_PFLASH0     .text         .text                            src\Driver\includes\SchM.o
0x8000b358 0x8000b35b    4 g SchM_Exit_Wdg_17_Scu_SafetyOffMode           PMU_PFLASH0     .text         .text                            src\Driver\includes\SchM.o
0x8000b354 0x8000b357    4 g SchM_Exit_Wdg_17_Scu_SafetyTrigger           PMU_PFLASH0     .text         .text                            src\Driver\includes\SchM.o
0x8000b344 0x8000b347    4 g SchM_Exit_Wdg_17_Scu_TimerHandling           PMU_PFLASH0     .text         .text                            src\Driver\includes\SchM.o
0x8000b348 0x8000b34b    4 g SchM_Exit_Wdg_17_Scu_Trigger                 PMU_PFLASH0     .text         .text                            src\Driver\includes\SchM.o
0x8000bca8 0x8000bcd7   48 l ScuWdtPtrList                                PMU_PFLASH0     .rodata       .rodata                          src\Driver\includes\Mcal_WdgLib.o
0x80009e62 0x80009f01  160 g ScuWdt_ClearCpuEndinit                       PMU_PFLASH0     .text         .text                            src\Driver\Wdg\Wdg.o
0x80009fa2 0x8000a085  228 g ScuWdt_initCpuWatchdog                       PMU_PFLASH0     .text         .text                            src\Driver\Wdg\Wdg.o
0x80009f02 0x80009fa1  160 g ScuWdt_setCpuEndinit                         PMU_PFLASH0     .text         .text                            src\Driver\Wdg\Wdg.o
0x80006444 0x80006479   54 g SecM_CompareKey                              PMU_PFLASH0     .text         .text                            src\Core\SecM\SecM.o
0x8000647a 0x800064df  102 g SecM_ComputeCRC                              PMU_PFLASH0     .text         .text                            src\Core\SecM\SecM.o
0x800063f4 0x80006443   80 g SecM_ComputeKey                              PMU_PFLASH0     .text         .text                            src\Core\SecM\SecM.o
0xd00008f8 0xd000095b  100 g SecM_CrcDataBuffer                           DMI_DSPR        .bss          .bss                             src\Core\SecM\SecM.o
0x8000639a 0x800063f3   90 g SecM_GenerateSeed                            PMU_PFLASH0     .text         .text                            src\Core\SecM\SecM.o
0x8000662e 0x800066e7  186 l SecM_ProcessCrc                              PMU_PFLASH0     .text         .text                            src\Core\SecM\SecM.o
0x800064e0 0x8000662d  334 g SecM_Verification                            PMU_PFLASH0     .text         .text                            src\Core\SecM\SecM.o
0xd0000a24 0xd0000a27    4 l Swdt_TimValue                                DMI_DSPR        .bss          .bss                             src\Driver\includes\Mcal_WdgLib.o
0xd000055c 0xd000055c    1 g TestFlag                                     DMI_DSPR        .bss          .bss                             src\Core\Dcm\Dcm.o
0x8000a0c0 0x8000a0c9   10 g Wdg_Kick                                     PMU_PFLASH0     .text         .text                            src\Driver\Wdg\Wdg.o
0x8000a086 0x8000a091   12 g Wdg_Start                                    PMU_PFLASH0     .text         .text                            src\Driver\Wdg\Wdg.o
0x8000a092 0x8000a0bf   46 g Wdg_Stop                                     PMU_PFLASH0     .text         .text                            src\Driver\Wdg\Wdg.o
0x8000a0ca 0x8000a0d1    8 g Wdg_SystemReset                              PMU_PFLASH0     .text         .text                            src\Driver\Wdg\Wdg.o
0xd0000a28 0xd0000a2b    4 l Wdt0_TimValue                                DMI_DSPR        .bss          .bss                             src\Driver\includes\Mcal_WdgLib.o
0xd0000a2c 0xd0000a2f    4 l Wdt1_TimValue                                DMI_DSPR        .bss          .bss                             src\Driver\includes\Mcal_WdgLib.o
0xd0000a30 0xd0000a33    4 l Wdt2_TimValue                                DMI_DSPR        .bss          .bss                             src\Driver\includes\Mcal_WdgLib.o
0xd0000a40 0xd0000a40    1 g _Randinit                                    DMI_DSPR        .bss          .bss                             rand.o
0xd0000058 0xd000005b    4 g _Randseed                                    DMI_DSPR        .data         .data                            rand.o
0xd0000a3c 0xd0000a3f    4 g _Tls_setup__Randinit                         DMI_DSPR        .bss          .bss                             rand.o
0xd0000a38 0xd0000a3b    4 g _Tls_setup__Randseed                         DMI_DSPR        .bss          .bss                             rand.o
0x8fff8000 0x8fff8000    0 g __BROM_BEGIN                                 *ABS*           *ABS*         *ABS*                            *ABS*
0x00008000 0x00008000    0 g __BROM_SIZE                                  *ABS*           *ABS*         *ABS*                            *ABS*
0xd0002000 0xd0002000    0 g __CSA                                        DMI_DSPR        .csa          .csa                             HTCU200_FBL.elf
0xd0002000 0xd0002000    0 g __CSA_BEGIN                                  DMI_DSPR        .csa          .csa                             HTCU200_FBL.elf
0xd0006000 0xd0006000    0 g __CSA_END                                    DMI_DSPR        .csa          .csa                             HTCU200_FBL.elf
0x00004000 0x00004000    0 g __CSA_SIZE                                   *ABS*           *ABS*         *ABS*                            *ABS*
0x8000bd48 0x8000bd48    0 g __CTOR_END__                                 PMU_PFLASH0     .ctors        .ctors                           HTCU200_FBL.elf
0x8000bd40 0x8000bd40    0 l __CTOR_END__                                 PMU_PFLASH0     .ctors        .ctors                           c:/hightec/toolchains/tricore/v4.6.6.1/bin/../lib/gcc/tricore/4.6.4/tc161/short-double/crtend.o
0x8000bd38 0x8000bd38    0 g __CTOR_LIST__                                PMU_PFLASH0     .ctors        .ctors                           HTCU200_FBL.elf
0x8000bd3c 0x8000bd3c    0 l __CTOR_LIST__                                PMU_PFLASH0     .ctors        .ctors                           c:/hightec/toolchains/tricore/v4.6.6.1/bin/../lib/gcc/tricore/4.6.4/tc161/short-double/crtbegin.o
0xd0000000 0xd0000000    0 g __DMI_DSPR_BEGIN                             *ABS*           *ABS*         *ABS*                            *ABS*
0x0001c000 0x0001c000    0 g __DMI_DSPR_SIZE                              *ABS*           *ABS*         *ABS*                            *ABS*
0x8000bd58 0x8000bd58    0 g __DTOR_END__                                 PMU_PFLASH0     .dtors        .dtors                           HTCU200_FBL.elf
0x8000bd48 0x8000bd48    0 g __DTOR_LIST__                                PMU_PFLASH0     .dtors        .dtors                           HTCU200_FBL.elf
0x8000bd4c 0x8000bd4c    0 l __DTOR_LIST__                                PMU_PFLASH0     .dtors        .dtors                           c:/hightec/toolchains/tricore/v4.6.6.1/bin/../lib/gcc/tricore/4.6.4/tc161/short-double/crtbegin.o
0xd0000fc8 0xd0000fc8    0 g __HEAP                                       DMI_DSPR        .heap         .heap                            HTCU200_FBL.elf
0xd0000fc8 0xd0000fc8    0 g __HEAP_BEGIN                                 DMI_DSPR        .heap         .heap                            HTCU200_FBL.elf
0xd0001fc8 0xd0001fc8    0 g __HEAP_END                                   DMI_DSPR        .heap         .heap                            HTCU200_FBL.elf
0x00001000 0x00001000    0 g __HEAP_SIZE                                  *ABS*           *ABS*         *ABS*                            *ABS*
0xd0000fc8 0xd0000fc8    0 g __ISTACK                                     DMI_DSPR        .istack       .istack                          HTCU200_FBL.elf
0xd0000ec8 0xd0000ec8    0 g __ISTACK_BEGIN                               DMI_DSPR        .istack       .istack                          HTCU200_FBL.elf
0xd0000fc8 0xd0000fc8    0 g __ISTACK_END                                 DMI_DSPR        .istack       .istack                          HTCU200_FBL.elf
0x00000100 0x00000100    0 g __ISTACK_SIZE                                *ABS*           *ABS*         *ABS*                            *ABS*
0xc0000000 0xc0000000    0 l __JCR_LIST__                                 PMI_PSPR        .jcr          .jcr                             c:/hightec/toolchains/tricore/v4.6.6.1/bin/../lib/gcc/tricore/4.6.4/tc161/short-double/crtbegin.o
0x90000000 0x90000000    0 g __LMU_SRAM_BEGIN                             *ABS*           *ABS*         *ABS*                            *ABS*
0x00008000 0x00008000    0 g __LMU_SRAM_SIZE                              *ABS*           *ABS*         *ABS*                            *ABS*
0xc0000000 0xc0000000    0 g __PMI_PSPR_BEGIN                             *ABS*           *ABS*         *ABS*                            *ABS*
0x00006000 0x00006000    0 g __PMI_PSPR_SIZE                              *ABS*           *ABS*         *ABS*                            *ABS*
0xaf100000 0xaf100000    0 g __PMU_DFLASH0_1_BEGIN                        *ABS*           *ABS*         *ABS*                            *ABS*
0x00004000 0x00004000    0 g __PMU_DFLASH0_1_SIZE                         *ABS*           *ABS*         *ABS*                            *ABS*
0xaf004000 0xaf004000    0 g __PMU_DFLASH0_BEGIN                          *ABS*           *ABS*         *ABS*                            *ABS*
0xaf000000 0xaf000000    0 g __PMU_DFLASH0_NVM_BEGIN                      *ABS*           *ABS*         *ABS*                            *ABS*
0x00004000 0x00004000    0 g __PMU_DFLASH0_NVM_SIZE                       *ABS*           *ABS*         *ABS*                            *ABS*
0x000fc000 0x000fc000    0 g __PMU_DFLASH0_SIZE                           *ABS*           *ABS*         *ABS*                            *ABS*
0xaf110000 0xaf110000    0 g __PMU_DFLASH1_BEGIN                          *ABS*           *ABS*         *ABS*                            *ABS*
0x00010000 0x00010000    0 g __PMU_DFLASH1_SIZE                           *ABS*           *ABS*         *ABS*                            *ABS*
0x80000000 0x80000000    0 g __PMU_PFLASH0_BEGIN                          *ABS*           *ABS*         *ABS*                            *ABS*
0x00010000 0x00010000    0 g __PMU_PFLASH0_SIZE                           *ABS*           *ABS*         *ABS*                            *ABS*
0x80200000 0x80200000    0 g __PMU_PFLASH1_BEGIN                          *ABS*           *ABS*         *ABS*                            *ABS*
0x00200000 0x00200000    0 g __PMU_PFLASH1_SIZE                           *ABS*           *ABS*         *ABS*                            *ABS*
0x00002700 0x00002700    0 g __TRICORE_DERIVATE_NAME__                    *ABS*           *ABS*         *ABS*                            *ABS*
0xd0000ec8 0xd0000ec8    0 g __USTACK                                     DMI_DSPR        .ustack       .ustack                          HTCU200_FBL.elf
0xd0000ac8 0xd0000ac8    0 g __USTACK_BEGIN                               DMI_DSPR        .ustack       .ustack                          HTCU200_FBL.elf
0xd0000ec8 0xd0000ec8    0 g __USTACK_END                                 DMI_DSPR        .ustack       .ustack                          HTCU200_FBL.elf
0x00000400 0x00000400    0 g __USTACK_SIZE                                *ABS*           *ABS*         *ABS*                            *ABS*
0x800002e0 0x800002e0    0 l __clear_byte                                 PMU_PFLASH0     .startup_code .startup_code                    src\crt0-tc2x.o
0x800002b0 0x800002b0    0 l __clear_dword                                PMU_PFLASH0     .startup_code .startup_code                    src\crt0-tc2x.o
0x800002cc 0x800002cc    0 l __clear_hword                                PMU_PFLASH0     .startup_code .startup_code                    src\crt0-tc2x.o
0x8000bd58 0x8000bd58    0 g __clear_table                                PMU_PFLASH0     .clear_sec    .clear_sec                       HTCU200_FBL.elf
0x800002ec 0x800002ec    0 l __clear_table_done                           PMU_PFLASH0     .startup_code .startup_code                    src\crt0-tc2x.o
0x80000280 0x80000280    0 g __clear_table_func                           PMU_PFLASH0     .startup_code .startup_code                    src\crt0-tc2x.o
0x80000290 0x80000290    0 l __clear_table_next                           PMU_PFLASH0     .startup_code .startup_code                    src\crt0-tc2x.o
0x800002b8 0x800002b8    0 l __clear_word                                 PMU_PFLASH0     .startup_code .startup_code                    src\crt0-tc2x.o
0x80000358 0x80000358    0 l __copy_byte                                  PMU_PFLASH0     .startup_code .startup_code                    src\crt0-tc2x.o
0x8000031c 0x8000031c    0 l __copy_dword                                 PMU_PFLASH0     .startup_code .startup_code                    src\crt0-tc2x.o
0x80000340 0x80000340    0 l __copy_hword                                 PMU_PFLASH0     .startup_code .startup_code                    src\crt0-tc2x.o
0x8000bd80 0x8000bd80    0 g __copy_table                                 PMU_PFLASH0     .copy_sec     .copy_sec                        HTCU200_FBL.elf
0x80000368 0x80000368    0 l __copy_table_done                            PMU_PFLASH0     .startup_code .startup_code                    src\crt0-tc2x.o
0x800002f0 0x800002f0    0 g __copy_table_func                            PMU_PFLASH0     .startup_code .startup_code                    src\crt0-tc2x.o
0x800002f8 0x800002f8    0 l __copy_table_next                            PMU_PFLASH0     .startup_code .startup_code                    src\crt0-tc2x.o
0x80000328 0x80000328    0 l __copy_word                                  PMU_PFLASH0     .startup_code .startup_code                    src\crt0-tc2x.o
0x8000b5de 0x8000b5de    0 l __do_global_ctors_aux                        PMU_PFLASH0     .text         .text.__do_global_ctors_aux      c:/hightec/toolchains/tricore/v4.6.6.1/bin/../lib/gcc/tricore/4.6.4/tc161/short-double/crtend.o
0x8000b3ce 0x8000b3ce    0 l __do_global_dtors_aux                        PMU_PFLASH0     .text         .text.__do_global_dtors_aux      c:/hightec/toolchains/tricore/v4.6.6.1/bin/../lib/gcc/tricore/4.6.4/tc161/short-double/crtbegin.o
0x800001e8 0x800001e8    0 g __init_csa                                   PMU_PFLASH0     .startup_code .startup_code                    src\crt0-tc2x.o
0x80000140 0x80000140    0 l __remapped                                   PMU_PFLASH0     .startup_code .startup_code                    src\crt0-tc2x.o
0x8000b5ce 0x8000b5dd   16 g _exit                                        PMU_PFLASH0     .text         .text._exit                      libos_exit.o
0x8000b608 0x8000b608    0 g _fini                                        PMU_PFLASH0     .fini         .fini                            c:/hightec/toolchains/tricore/v4.6.6.1/bin/../lib/gcc/tricore/4.6.4/tc161/short-double/crti.o
0x8000b5f8 0x8000b5f8    0 g _init                                        PMU_PFLASH0     .init         .init                            c:/hightec/toolchains/tricore/v4.6.6.1/bin/../lib/gcc/tricore/4.6.4/tc161/short-double/crti.o
0x80000020 0x80000020    0 g _start                                       PMU_PFLASH0     .startup_code .startup_code                    src\crt0-tc2x.o
0x80000024 0x80000024    0 l _startaddr                                   PMU_PFLASH0     .startup_code .startup_code                    src\crt0-tc2x.o
0x80000190 0x80000190    0 l asm_clear_endinit_xx                         PMU_PFLASH0     .startup_code .startup_code                    src\crt0-tc2x.o
0x800001bc 0x800001bc    0 l asm_set_endinit_xx                           PMU_PFLASH0     .startup_code .startup_code                    src\crt0-tc2x.o
0x8000b5f8 0x8000b5f8    0 l call___do_global_ctors_aux                   PMU_PFLASH0     .text         .text.call___do_global_ctors_aux c:/hightec/toolchains/tricore/v4.6.6.1/bin/../lib/gcc/tricore/4.6.4/tc161/short-double/crtend.o
0x8000b418 0x8000b418    0 l call___do_global_dtors_aux                   PMU_PFLASH0     .text         .text.call___do_global_dtors_aux c:/hightec/toolchains/tricore/v4.6.6.1/bin/../lib/gcc/tricore/4.6.4/tc161/short-double/crtbegin.o
0x8000b434 0x8000b434    0 l call_frame_dummy                             PMU_PFLASH0     .text         .text.call_frame_dummy           c:/hightec/toolchains/tricore/v4.6.6.1/bin/../lib/gcc/tricore/4.6.4/tc161/short-double/crtbegin.o
0x8000a2c8 0x8000a319   82 g cmpswap_w                                    PMU_PFLASH0     .text         .text                            src\Driver\includes\Mcal_TcLib.o
0xd0000060 0xd0000060    0 l completed.3082                               DMI_DSPR        .bss          .bss                             c:/hightec/toolchains/tricore/v4.6.6.1/bin/../lib/gcc/tricore/4.6.4/tc161/short-double/crtbegin.o
0x8000024c 0x8000024c    0 l csa_loop                                     PMU_PFLASH0     .startup_code .startup_code                    src\crt0-tc2x.o
0xd000052c 0xd000054f   36 l dcmComStatus                                 DMI_DSPR        .bss          .bss                             src\Core\Dcm\Dcm.o
0xd0000560 0xd0000567    8 l dcmDspProgram                                DMI_DSPR        .bss          .bss                             src\Core\Dcm\Dcm_Dsp.o
0xd0000568 0xd000056f    8 l dcmDspSec                                    DMI_DSPR        .bss          .bss                             src\Core\Dcm\Dcm_Dsp.o
0xd0000528 0xd0000528    1 g dcmDummyDefault                              DMI_DSPR        .bss          .bss                             src\Core\Dcm\Dcm.o
0xd0000570 0xd0000573    4 l dcmLastSeed                                  DMI_DSPR        .bss          .bss                             src\Core\Dcm\Dcm_Dsp.o
0xd0000550 0xd000055b   12 l dcmRunTime                                   DMI_DSPR        .bss          .bss                             src\Core\Dcm\Dcm.o
0x8000010c 0x8000010c    0 l disable_safety_wdt                           PMU_PFLASH0     .startup_code .startup_code                    src\crt0-tc2x.o
0x80000048 0x80000048    0 l do_endinit_cpuN                              PMU_PFLASH0     .startup_code .startup_code                    src\crt0-tc2x.o
0x80000064 0x80000064    0 l do_endinit_s                                 PMU_PFLASH0     .startup_code .startup_code                    src\crt0-tc2x.o
0xd0000064 0xd0000064    0 l dtor_idx.3084                                DMI_DSPR        .bss          .bss                             c:/hightec/toolchains/tricore/v4.6.6.1/bin/../lib/gcc/tricore/4.6.4/tc161/short-double/crtbegin.o
0x80000058 0x80000058    0 l endinit_done_cpuN                            PMU_PFLASH0     .startup_code .startup_code                    src\crt0-tc2x.o
0x80000078 0x80000078    0 l endinit_done_s                               PMU_PFLASH0     .startup_code .startup_code                    src\crt0-tc2x.o
0xd0000000 0xd0000017   24 l flashParamInfo                               DMI_DSPR        .data         .data                            src\Core\Fl\FL.o
0x8000b418 0x8000b418    0 l frame_dummy                                  PMU_PFLASH0     .text         .text.frame_dummy                c:/hightec/toolchains/tricore/v4.6.6.1/bin/../lib/gcc/tricore/4.6.4/tc161/short-double/crtbegin.o
0xd0000ac4 0xd0000ac7    4 l idx                                          DMI_DSPR        .bss          .bss                             rand.o
0x80000084 0x80000084    0 l init_stack_pointers                          PMU_PFLASH0     .startup_code .startup_code                    src\crt0-tc2x.o
0x80000130 0x80000130    0 l jump_to_remapped                             PMU_PFLASH0     .startup_code .startup_code                    src\crt0-tc2x.o
0xd0000074 0xd0000074    1 l led_cnt.3978                                 DMI_DSPR        .bss          .bss                             src\Core\Appl\Appl.o
0x8000b5ae 0x8000b5cd   32 g lock_safety_wdtcon                           PMU_PFLASH0     .text         .text.lock_safety_wdtcon         wdtcon.o
0x8000b562 0x8000b58d   44 g lock_wdtcon                                  PMU_PFLASH0     .text         .text.lock_wdtcon                wdtcon.o
0x8000b3bc 0x8000b3cb   16 g main                                         PMU_PFLASH0     .text         .text                            src\main.o
0x8000b434 0x8000b503  208 g rand                                         PMU_PFLASH0     .text         .text.rand                       rand.o
0xd0000a44 0xd0000ac3  128 l rv                                           DMI_DSPR        .bss          .bss                             rand.o
0x8000b504 0x8000b535   50 g srand                                        PMU_PFLASH0     .text         .text.srand                      srand.o
0x8000b58e 0x8000b5ad   32 g unlock_safety_wdtcon                         PMU_PFLASH0     .text         .text.unlock_safety_wdtcon       wdtcon.o
0x8000b536 0x8000b561   44 g unlock_wdtcon                                PMU_PFLASH0     .text         .text.unlock_wdtcon              wdtcon.o


----- END EXTENDED MAP LISTING -----


Memory Configuration

Name             Origin             Length             Used               Free               Attributes
PMU_PFLASH0      0x80000000         0x00010000         0x0000bdbc         0x00004244         xr !p
PMU_PFLASH1      0x80200000         0x00200000         0x00000000         0x00200000         xr !p
PMU_DFLASH0_NVM  0xaf000000         0x00004000         0x00000068         0x00003f98         r !xp
PMU_DFLASH0      0xaf004000         0x000fc000         0x00000000         0x000fc000         r !xp
PMU_DFLASH0_1    0xaf100000         0x00004000         0x00000000         0x00004000         r !xp
PMU_DFLASH1      0xaf110000         0x00010000         0x00000000         0x00010000         r !xp
BROM             0x8fff8000         0x00008000         0x00000000         0x00008000         xr !p
PMI_PSPR         0xc0000000         0x00006000         0x00000000         0x00006000         xw !p
DMI_DSPR         0xd0000000         0x0001c000         0x00006000         0x00016000         w !xp
LMU_SRAM         0x90000000         0x00008000         0x00000000         0x00008000         w !xp
*default*        0x00000000         0xffffffff         0x00000046         0xffffffb9

Linker script and memory map

LOAD c:/hightec/toolchains/tricore/v4.6.6.1/bin/../lib/gcc/tricore/4.6.4/tc161/short-double/crti.o
LOAD c:/hightec/toolchains/tricore/v4.6.6.1/bin/../lib/gcc/tricore/4.6.4/tc161/short-double/crtbegin.o
LOAD src\Cfg\Can\Can_Cfg.o
LOAD src\Cfg\CanIf\CanIf_Cfg.o
LOAD src\Cfg\CanTp\CanTp_Cfg.o
LOAD src\Cfg\Dcm\Dcm_Cfg.o
LOAD src\Cfg\FL\FL_Cfg.o
LOAD src\Cfg\Mcu\Mcu_PBCfg.o
LOAD src\Core\Appl\Appl.o
LOAD src\Core\Cal\Cal.o
LOAD src\Core\CanIf\CanIf.o
LOAD src\Core\CanTp\CanTp.o
LOAD src\Core\Dcm\Dcm.o
LOAD src\Core\Dcm\Dcm_Dsp.o
LOAD src\Core\Fl\FL.o
LOAD src\Core\SecM\SecM.o
LOAD src\Driver\Can\Can.o
LOAD src\Driver\Fls\Fls.o
LOAD src\Driver\MCU\Mcu.o
LOAD src\Driver\MCU\Mcu_Crc.o
LOAD src\Driver\MCU\Mcu_Dma.o
LOAD src\Driver\MCU\Mcu_Platform.o
LOAD src\Driver\MCU\Mcu_Ver.o
LOAD src\Driver\Stm\STM.o
LOAD src\Driver\Wdg\Wdg.o
LOAD src\Driver\includes\Mcal.o
LOAD src\Driver\includes\Mcal_DmaLib.o
LOAD src\Driver\includes\Mcal_TcLib.o
LOAD src\Driver\includes\Mcal_WdgLib.o
LOAD src\Driver\includes\SchM.o
LOAD src\crt0-tc2x.o
LOAD src\main.o
LOAD c:/hightec/toolchains/tricore/v4.6.6.1/bin/../lib/gcc/tricore/4.6.4/tc161/short-double\libgcc.a
LOAD c:/hightec/toolchains/tricore/v4.6.6.1/bin/../lib/gcc/tricore/4.6.4/../../../../tricore/lib/tc161/short-double\libdnk_c.a
LOAD c:/hightec/toolchains/tricore/v4.6.6.1/bin/../lib/gcc/tricore/4.6.4/../../../../tricore/lib/tc161/short-double\libos.a
LOAD c:/hightec/toolchains/tricore/v4.6.6.1/bin/../lib/gcc/tricore/4.6.4/../../../../tricore/lib/tc161/short-double\libdnk_c.a
LOAD c:/hightec/toolchains/tricore/v4.6.6.1/bin/../lib/gcc/tricore/4.6.4/tc161/short-double\libgcc.a
LOAD c:/hightec/toolchains/tricore/v4.6.6.1/bin/../lib/gcc/tricore/4.6.4/tc161/short-double/crtend.o
LOAD c:/hightec/toolchains/tricore/v4.6.6.1/bin/../lib/gcc/tricore/4.6.4/tc161/short-double/crtn.o
                0x80000000                __PMU_PFLASH0_BEGIN = 0x80000000
                0x00010000                __PMU_PFLASH0_SIZE = 0x10000
                0x80200000                __PMU_PFLASH1_BEGIN = 0x80200000
                0x00200000                __PMU_PFLASH1_SIZE = 0x200000
                0xaf000000                __PMU_DFLASH0_NVM_BEGIN = 0xaf000000
                0x00004000                __PMU_DFLASH0_NVM_SIZE = 0x4000
                0xaf004000                __PMU_DFLASH0_BEGIN = 0xaf004000
                0x000fc000                __PMU_DFLASH0_SIZE = 0xfc000
                0xaf100000                __PMU_DFLASH0_1_BEGIN = 0xaf100000
                0x00004000                __PMU_DFLASH0_1_SIZE = 0x4000
                0xaf110000                __PMU_DFLASH1_BEGIN = 0xaf110000
                0x00010000                __PMU_DFLASH1_SIZE = 0x10000
                0x8fff8000                __BROM_BEGIN = 0x8fff8000
                0x00008000                __BROM_SIZE = 0x8000
                0xc0000000                __PMI_PSPR_BEGIN = 0xc0000000
                0x00006000                __PMI_PSPR_SIZE = 0x6000
                0xd0000000                __DMI_DSPR_BEGIN = 0xd0000000
                0x0001c000                __DMI_DSPR_SIZE = 0x1c000
                0x90000000                __LMU_SRAM_BEGIN = 0x90000000
                0x00008000                __LMU_SRAM_SIZE = 0x8000
                [0x00000400]                __USTACK_SIZE = DEFINED (__USTACK_SIZE)?__USTACK_SIZE:0x400
                [0x00000100]                __ISTACK_SIZE = DEFINED (__ISTACK_SIZE)?__ISTACK_SIZE:0x100
                [0x00001000]                __HEAP_SIZE = DEFINED (__HEAP_SIZE)?__HEAP_SIZE:0x1000
                [0x00004000]                __CSA_SIZE = DEFINED (__CSA_SIZE)?__CSA_SIZE:0x4000

.startup_code   memory region -> PMU_PFLASH0
                0x80000000      0x370
                0x80000000                PROVIDE (__startup_code_start, .)
 *(.startup_code)
 .startup_code  0x80000000      0x36c src\crt0-tc2x.o
                0x80000020                _start
                0x800001e8                __init_csa
                0x80000280                __clear_table_func
                0x800002f0                __copy_table_func
 *(.startup_code*)
                0x8000036c                PROVIDE (__startup_code_end, .)
                0x80000370                . = ALIGN (0x8)
 *fill*         0x8000036c        0x4 00

.text           memory region -> PMU_PFLASH0
                0x80000370     0xb288
                0x80000370                PROVIDE (__text_start, .)
 *(.text)
 .text          0x80000370        0x0 c:/hightec/toolchains/tricore/v4.6.6.1/bin/../lib/gcc/tricore/4.6.4/tc161/short-double/crti.o
 .text          0x80000370        0x4 c:/hightec/toolchains/tricore/v4.6.6.1/bin/../lib/gcc/tricore/4.6.4/tc161/short-double/crtbegin.o
 .text          0x80000374        0x0 src\Cfg\Can\Can_Cfg.o
 .text          0x80000374        0x0 src\Cfg\CanIf\CanIf_Cfg.o
 .text          0x80000374        0x0 src\Cfg\CanTp\CanTp_Cfg.o
 .text          0x80000374        0x0 src\Cfg\Dcm\Dcm_Cfg.o
 .text          0x80000374        0x0 src\Cfg\FL\FL_Cfg.o
 .text          0x80000374        0x0 src\Cfg\Mcu\Mcu_PBCfg.o
 .text          0x80000374      0x5b4 src\Core\Appl\Appl.o
                0x80000374                Appl_EcuStartup
                0x8000044c                Appl_FlStartup
                0x800004d2                Appl_EcuShutdown
                0x800004d6                Appl_EcuReset
                0x800004f2                Appl_CheckConsistency
                0x80000552                Appl_UpdateTriggerCondition
                0x80000640                Appl_Memcpy
                0x80000694                Appl_Memset
 .text          0x80000928       0x9e src\Core\Cal\Cal.o
                0x80000928                Cal_CrcInit
                0x8000093c                Cal_CrcCal
                0x800009aa                Cal_CrcFinalize
 .text          0x800009c6      0x214 src\Core\CanIf\CanIf.o
                0x800009c6                CanIf_Init
                0x800009e8                CanIf_Transmit
                0x80000aac                CanIf_TxConfirmation
                0x80000b16                CanIf_RxIndication
                0x80000bba                CanIf_ControllerBusOff
                0x80000bc6                CanIf_MainFunction
 *fill*         0x80000bda        0x2 00
 .text          0x80000bdc     0x1884 src\Core\CanTp\CanTp.o
                0x80000bdc                CanTp_Init
                0x80000c12                CanTp_RxIndication
                0x80000d96                CanTp_TxConfirmation
                0x80000f0a                CanTp_Transmit
                0x80000f70                CanTp_MainFunction
 .text          0x80002460      0xb22 src\Core\Dcm\Dcm.o
                0x80002460                Dcm_Init
                0x80002484                Dcm_ProgramInit
                0x80002516                Dcm_MainFunction
                0x80002522                Dcm_ProvideRxBuffer
                0x800025c0                Dcm_RxIndication
                0x80002606                Dcm_ProvideTxBuffer
                0x80002670                Dcm_TxConfirmation
                0x800026f0                Dcm_ServiceFinish
                0x800027da                Dcm_SetSessionMode
                0x800027f6                Dcm_GetSessionMode
                0x80002808                Dcm_CheckSessionSupp
                0x8000283c                Dcm_CheckSessionSuppMask
                0x80002878                Dcm_CheckSessionSuppMask_2E
                0x800028b4                Dcm_SetSecurityLevel
                0x800028d0                Dcm_GetSecurityLevel
                0x800028e2                Dcm_GetSecurityTimerExpired
                0x800028f4                Dcm_CheckSecuritySupp
                0x80002928                Dcm_StartSecurityTimer
                0x80002954                Dcm_StartResetTimer
                0x80002984                Dcm_SendRsp
                0x800029b0                Dcm_SendNcr
                0x80002cde                Dcm_StartP3cTimer
                0x80002f36                Dcm_ForcePending
                0x80002f42                PosResponse255
 .text          0x80002f82     0x1ca4 src\Core\Dcm\Dcm_Dsp.o
                0x80002f82                Dcm_DspInit
                0x80002fcc                Dcm_RecvMsg10
                0x800032c2                Dcm_RecvMsg11
                0x80003428                Dcm_RecvMsg22
                0x8000359e                Dcm_RecvMsg2E
                0x80003728                Dcm_RecvMsg27
                0x8000389e                Dcm_RecvMsg28
                0x80003a42                Dcm_RecvMsg34
                0x80003c06                Dcm_RecvMsg36
                0x80003dc6                Dcm_RecvMsg37
                0x80003e40                Dcm_RecvMsg31
                0x80004042                Dcm_CheckProgPreCondition
                0x800040b6                Dcm_CheckProgDependencies
                0x80004118                Dcm_CheckMemory
                0x8000416c                Dcm_EraseMemory
                0x80004298                Dcm_RecvMsg3E
                0x800043b4                Dcm_RecvMsg85
                0x800044f8                Dcm_Pending2E
                0x8000456e                Dcm_Pending36
                0x800045ca                Dcm_Pending31
 .text          0x80004c26     0x1774 src\Core\Fl\FL.o
                0x80004c26                FL_InitState
                0x80004cb4                FL_ReadProgCounter
                0x80004cd8                FL_ReadProgAttemptCounter
                0x80004cfc                FL_ReadBootSWReferenceNumber
                0x80004d60                FL_ReadFingerPrint
                0x80004e1c                FL_ReadSysECUHWVer
                0x80004e82                FL_ReadMemory
                0x80004faa                FL_CheckProgPreCondition
                0x80004fc2                FL_WriteRepairShopCode
                0x8000501c                FL_WriteFingerPrint
                0x8000509a                FL_CheckSumRoutine
                0x80005114                FL_EraseRoutine
                0x800052c4                FL_DownloadRequestValid
                0x80005436                FL_FlashProgramRegion
                0x80005582                FL_ExitTransferData
                0x800055d0                FL_ServiceFinished
                0x80005630                FL_MainFunction
                0x800062d2                FL_updateProgCnt
                0x80006386                Fl_GetActiveJob
 .text          0x8000639a      0x34e src\Core\SecM\SecM.o
                0x8000639a                SecM_GenerateSeed
                0x800063f4                SecM_ComputeKey
                0x80006444                SecM_CompareKey
                0x8000647a                SecM_ComputeCRC
                0x800064e0                SecM_Verification
 .text          0x800066e8     0x1a44 src\Driver\Can\Can.o
                0x800066e8                Can_Init
                0x80006852                Can_InitController
                0x80006888                Can_SetControllerMode
                0x80006920                Can_DisableControllerInterrupts
                0x80006964                Can_EnableControllerInterrupts
                0x800069f6                Can_Write
                0x80006a90                Can_Cbk_CheckWakeup
                0x80006aa8                Can_MainFunction_Write
                0x80006b02                Can_MainFunction_Read
                0x80006b5c                Can_MainFunction_BusOff
                0x80006bd8                Can_MainFunction_Wakeup
                0x80008032                Can_Deinit
 .text          0x8000812c       0x7e src\Driver\Fls\Fls.o
                0x8000812c                FlashReadByte
                0x80008160                FlashReadMemory
 .text          0x800081aa      0xf0a src\Driver\MCU\Mcu.o
                0x800081aa                Mcu_Init
                0x8000829a                Mcu_DeInit
                0x80008310                Mcu_InitRamSection
                0x80008326                Mcu_InitClock
                0x8000898e                Mcu_DistributePllClock
                0x80008ccc                Mcu_GetPllStatus
                0x80008cee                Mcu_GetResetReason
                0x80008d22                Mcu_GetResetRawValue
                0x80008d3e                Mcu_PerformReset
                0x80008d90                Mcu_SetMode
 .text          0x800090b4        0x0 src\Driver\MCU\Mcu_Crc.o
 .text          0x800090b4       0x64 src\Driver\MCU\Mcu_Dma.o
                0x800090b4                Mcu_lDmaInit
                0x800090fc                Mcu_lDmaDeInit
 .text          0x80009118      0xb88 src\Driver\MCU\Mcu_Platform.o
                0x80009118                Mcu_lPlatformInit
                0x800093da                Mcu_lGetPlatformRstReason
                0x80009850                Mcu_lSetIdleMode
                0x800098c6                Mcu_lSetSleepMode
                0x8000993c                Mcu_lSetStandbyMode
 .text          0x80009ca0        0x0 src\Driver\MCU\Mcu_Ver.o
 .text          0x80009ca0      0x1c2 src\Driver\Stm\STM.o
                0x80009ca0                STM_Init
                0x80009d6c                STM_Deinit
                0x80009dc4                STM_GetFlag
 .text          0x80009e62      0x270 src\Driver\Wdg\Wdg.o
                0x80009e62                ScuWdt_ClearCpuEndinit
                0x80009f02                ScuWdt_setCpuEndinit
                0x80009fa2                ScuWdt_initCpuWatchdog
                0x8000a086                Wdg_Start
                0x8000a092                Wdg_Stop
                0x8000a0c0                Wdg_Kick
                0x8000a0ca                Wdg_SystemReset
 .text          0x8000a0d2       0x24 src\Driver\includes\Mcal.o
                0x8000a0d2                Mcal_SafeErrorHandler
 *fill*         0x8000a0f6        0x2 00
 .text          0x8000a0f8      0x1d0 src\Driver\includes\Mcal_DmaLib.o
                0x8000a0f8                Mcal_DmaEnableIntr
                0x8000a148                Mcal_DmaDisableIntr
                0x8000a1c4                Mcal_DmaCfgNoOfMovesPerTransfer
 .text          0x8000a2c8      0x590 src\Driver\includes\Mcal_TcLib.o
                0x8000a2c8                cmpswap_w
                0x8000a31a                Mcal_GetCoreId
                0x8000a336                Mcal_GetDsprReMapAddress
                0x8000a432                Mcal_SetCpuPC
                0x8000a46a                Mcal_StartCore
                0x8000a4d0                Mcal_LockResource
                0x8000a4fe                Mcal_UnlockResource
                0x8000a518                Mcal_GetSpinLock
                0x8000a574                Mcal_ReleaseSpinLock
                0x8000a58e                Mcal_SuspendAllInterrupts
                0x8000a690                Mcal_ResumeAllInterrupts
                0x8000a784                Mcal_UpdateRegSV
                0x8000a7b8                Mcal_SetRegValSV
 .text          0x8000a858      0x9e4 src\Driver\includes\Mcal_WdgLib.o
                0x8000a976                Mcal_ResetCpuENDINIT
                0x8000aa9a                Mcal_SetCpuENDINIT
                0x8000adea                Mcal_ResetENDINIT
                0x8000af24                Mcal_SetENDINIT
                0x8000b092                Mcal_ResetSafetyENDINIT_Timed
                0x8000b102                Mcal_SetSafetyENDINIT_Timed
                0x8000b154                Mcal_SafetyModifyAccess
                0x8000b170                Mcal_CpuWdtModifyAccess
                0x8000b1a4                Mcal_SafetyCheckAccess
                0x8000b1c0                Mcal_CpuWdtCheckAccess
                0x8000b1f4                Mcal_SafetyPwSequence
                0x8000b20c                Mcal_CpuWdtPwSequence
 .text          0x8000b23c      0x180 src\Driver\includes\SchM.o
                0x8000b23c                SchM_Enter_Adc_StartGroup
                0x8000b240                SchM_Enter_Adc_StopGroup
                0x8000b244                SchM_Enter_Adc_ReadGroup
                0x8000b248                SchM_Enter_Adc_EnableHwTrig
                0x8000b24c                SchM_Enter_Adc_DisableHwTrig
                0x8000b250                SchM_Enter_Adc_GetGrpStatus
                0x8000b254                SchM_Enter_Adc_GetStreamLastPtr
                0x8000b258                SchM_Enter_Adc_ScheduleStart
                0x8000b25c                SchM_Enter_Adc_ScheduleStop
                0x8000b260                SchM_Enter_Adc_ScheduleNext
                0x8000b264                SchM_Enter_Adc_PushQueue
                0x8000b268                SchM_Enter_Adc_PopQueue
                0x8000b26c                SchM_Exit_Adc_StartGroup
                0x8000b270                SchM_Exit_Adc_StopGroup
                0x8000b274                SchM_Exit_Adc_ReadGroup
                0x8000b278                SchM_Exit_Adc_EnableHwTrig
                0x8000b27c                SchM_Exit_Adc_DisableHwTrig
                0x8000b280                SchM_Exit_Adc_GetGrpStatus
                0x8000b284                SchM_Exit_Adc_GetStreamLastPtr
                0x8000b288                SchM_Exit_Adc_ScheduleStart
                0x8000b28c                SchM_Exit_Adc_ScheduleStop
                0x8000b290                SchM_Exit_Adc_ScheduleNext
                0x8000b294                SchM_Exit_Adc_PushQueue
                0x8000b298                SchM_Exit_Adc_PopQueue
                0x8000b29c                SchM_Enter_Icu_17_GtmCcu6_EnableWakeup
                0x8000b2a0                SchM_Exit_Icu_17_GtmCcu6_EnableWakeup
                0x8000b2a4                SchM_Enter_Icu_17_GtmCcu6_EnableNotification
                0x8000b2a8                SchM_Exit_Icu_17_GtmCcu6_EnableNotification
                0x8000b2ac                SchM_Enter_Icu_17_GtmCcu6_ResetEdgeCount
                0x8000b2b0                SchM_Exit_Icu_17_GtmCcu6_ResetEdgeCount
                0x8000b2b4                SchM_Enter_Icu_17_GtmCcu6_Ccu6IenUpdate
                0x8000b2b8                SchM_Exit_Icu_17_GtmCcu6_Ccu6IenUpdate
                0x8000b2bc                SchM_Enter_Icu_17_GtmCcu6_CcuInterruptHandle
                0x8000b2c0                SchM_Exit_Icu_17_GtmCcu6_CcuInterruptHandle
                0x8000b2c4                SchM_Enter_Icu_17_GtmCcu6_CcuVariableupdate
                0x8000b2c8                SchM_Exit_Icu_17_GtmCcu6_CcuVariableupdate
                0x8000b2cc                SchM_Enter_Can_17_MCanP_CanDisInt
                0x8000b2d0                SchM_Exit_Can_17_MCanP_CanDisInt
                0x8000b2d4                SchM_Enter_Can_17_MCanP_CanEnInt
                0x8000b2d8                SchM_Exit_Can_17_MCanP_CanEnInt
                0x8000b2dc                SchM_Enter_Can_17_MCanP_CanWrMO
                0x8000b2e0                SchM_Exit_Can_17_MCanP_CanWrMO
                0x8000b2e4                SchM_Enter_Fr_17_Eray_ControllerInit
                0x8000b2e8                SchM_Exit_Fr_17_Eray_ControllerInit
                0x8000b2ec                SchM_Enter_Fr_17_Eray_SetWakeupChannel
                0x8000b2f0                SchM_Exit_Fr_17_Eray_SetWakeupChannel
                0x8000b2f4                SchM_Enter_Spi_WriteIB
                0x8000b2f8                SchM_Exit_Spi_WriteIB
                0x8000b2fc                SchM_Enter_Spi_AsyncTransmit
                0x8000b300                SchM_Exit_Spi_AsyncTransmit
                0x8000b304                SchM_Enter_Spi_GetSequenceResult
                0x8000b308                SchM_Exit_Spi_GetSequenceResult
                0x8000b30c                SchM_Enter_Spi_Cancel
                0x8000b310                SchM_Exit_Spi_Cancel
                0x8000b314                SchM_Enter_Spi_Init
                0x8000b318                SchM_Exit_Spi_Init
                0x8000b31c                SchM_Enter_Spi_DeInit
                0x8000b320                SchM_Exit_Spi_DeInit
                0x8000b324                SchM_Enter_Spi_SyncTransmit
                0x8000b328                SchM_Exit_Spi_SyncTransmit
                0x8000b32c                SchM_Enter_Wdg_17_Scu_TimerHandling
                0x8000b330                SchM_Enter_Wdg_17_Scu_Trigger
                0x8000b334                SchM_Enter_Wdg_17_Scu_ChangeMode
                0x8000b338                SchM_Enter_Wdg_17_Scu_SafetyInit
                0x8000b33c                SchM_Enter_Wdg_17_Scu_SafetyTrigger
                0x8000b340                SchM_Enter_Wdg_17_Scu_SafetyOffMode
                0x8000b344                SchM_Exit_Wdg_17_Scu_TimerHandling
                0x8000b348                SchM_Exit_Wdg_17_Scu_Trigger
                0x8000b34c                SchM_Exit_Wdg_17_Scu_ChangeMode
                0x8000b350                SchM_Exit_Wdg_17_Scu_SafetyInit
                0x8000b354                SchM_Exit_Wdg_17_Scu_SafetyTrigger
                0x8000b358                SchM_Exit_Wdg_17_Scu_SafetyOffMode
                0x8000b35c                SchM_Enter_Fls_17_Pmu_Init
                0x8000b360                SchM_Exit_Fls_17_Pmu_Init
                0x8000b364                SchM_Enter_Fls_17_Pmu_Erase
                0x8000b368                SchM_Exit_Fls_17_Pmu_Erase
                0x8000b36c                SchM_Enter_Fls_17_Pmu_Write
                0x8000b370                SchM_Exit_Fls_17_Pmu_Write
                0x8000b374                SchM_Enter_Fls_17_Pmu_Main
                0x8000b378                SchM_Exit_Fls_17_Pmu_Main
                0x8000b37c                SchM_Enter_Fls_17_Pmu_ResumeErase
                0x8000b380                SchM_Exit_Fls_17_Pmu_ResumeErase
                0x8000b384                SchM_Enter_FlsLoader_Erase
                0x8000b388                SchM_Enter_FlsLoader_Write
                0x8000b38c                SchM_Enter_FlsLoader_lLock
                0x8000b390                SchM_Exit_FlsLoader_lLock
                0x8000b394                SchM_Exit_FlsLoader_Write
                0x8000b398                SchM_Exit_FlsLoader_Erase
                0x8000b39c                SchM_Enter_Eth_17_EthMac_Transmit
                0x8000b3a0                SchM_Exit_Eth_17_EthMac_Transmit
                0x8000b3a4                SchM_Enter_Eth_17_EthMac_ProvideTxBuffer
                0x8000b3a8                SchM_Exit_Eth_17_EthMac_ProvideTxBuffer
                0x8000b3ac                SchM_Enter_Eth_17_EthMac_SetControllerMode
                0x8000b3b0                SchM_Exit_Eth_17_EthMac_SetControllerMode
                0x8000b3b4                SchM_Enter_Eth_17_EthMac_TxRxIrqHandler
                0x8000b3b8                SchM_Exit_Eth_17_EthMac_TxRxIrqHandler
 .text          0x8000b3bc        0x0 src\crt0-tc2x.o
 .text          0x8000b3bc       0x10 src\main.o
                0x8000b3bc                main
 .text          0x8000b3cc        0x0 c:/hightec/toolchains/tricore/v4.6.6.1/bin/../lib/gcc/tricore/4.6.4/../../../../tricore/lib/tc161/short-double\libdnk_c.a(rand.o)
 .text          0x8000b3cc        0x0 c:/hightec/toolchains/tricore/v4.6.6.1/bin/../lib/gcc/tricore/4.6.4/../../../../tricore/lib/tc161/short-double\libdnk_c.a(srand.o)
 .text          0x8000b3cc        0x0 c:/hightec/toolchains/tricore/v4.6.6.1/bin/../lib/gcc/tricore/4.6.4/../../../../tricore/lib/tc161/short-double\libos.a(wdtcon.o)
 .text          0x8000b3cc        0x0 c:/hightec/toolchains/tricore/v4.6.6.1/bin/../lib/gcc/tricore/4.6.4/../../../../tricore/lib/tc161/short-double\libos.a(libos_exit.o)
 .text          0x8000b3cc        0x2 c:/hightec/toolchains/tricore/v4.6.6.1/bin/../lib/gcc/tricore/4.6.4/tc161/short-double/crtend.o
 .text          0x8000b3ce        0x0 c:/hightec/toolchains/tricore/v4.6.6.1/bin/../lib/gcc/tricore/4.6.4/tc161/short-double/crtn.o
 *(.text*)
 .text.__do_global_dtors_aux
                0x8000b3ce       0x4a c:/hightec/toolchains/tricore/v4.6.6.1/bin/../lib/gcc/tricore/4.6.4/tc161/short-double/crtbegin.o
 .text.call___do_global_dtors_aux
                0x8000b418        0x0 c:/hightec/toolchains/tricore/v4.6.6.1/bin/../lib/gcc/tricore/4.6.4/tc161/short-double/crtbegin.o
 .text.frame_dummy
                0x8000b418       0x1c c:/hightec/toolchains/tricore/v4.6.6.1/bin/../lib/gcc/tricore/4.6.4/tc161/short-double/crtbegin.o
 .text.call_frame_dummy
                0x8000b434        0x0 c:/hightec/toolchains/tricore/v4.6.6.1/bin/../lib/gcc/tricore/4.6.4/tc161/short-double/crtbegin.o
 .text.rand     0x8000b434       0xd0 c:/hightec/toolchains/tricore/v4.6.6.1/bin/../lib/gcc/tricore/4.6.4/../../../../tricore/lib/tc161/short-double\libdnk_c.a(rand.o)
                0x8000b434                rand
 .text.srand    0x8000b504       0x32 c:/hightec/toolchains/tricore/v4.6.6.1/bin/../lib/gcc/tricore/4.6.4/../../../../tricore/lib/tc161/short-double\libdnk_c.a(srand.o)
                0x8000b504                srand
 .text.unlock_wdtcon
                0x8000b536       0x2c c:/hightec/toolchains/tricore/v4.6.6.1/bin/../lib/gcc/tricore/4.6.4/../../../../tricore/lib/tc161/short-double\libos.a(wdtcon.o)
                0x8000b536                unlock_wdtcon
 .text.lock_wdtcon
                0x8000b562       0x2c c:/hightec/toolchains/tricore/v4.6.6.1/bin/../lib/gcc/tricore/4.6.4/../../../../tricore/lib/tc161/short-double\libos.a(wdtcon.o)
                0x8000b562                lock_wdtcon
 .text.unlock_safety_wdtcon
                0x8000b58e       0x20 c:/hightec/toolchains/tricore/v4.6.6.1/bin/../lib/gcc/tricore/4.6.4/../../../../tricore/lib/tc161/short-double\libos.a(wdtcon.o)
                0x8000b58e                unlock_safety_wdtcon
 .text.lock_safety_wdtcon
                0x8000b5ae       0x20 c:/hightec/toolchains/tricore/v4.6.6.1/bin/../lib/gcc/tricore/4.6.4/../../../../tricore/lib/tc161/short-double\libos.a(wdtcon.o)
                0x8000b5ae                lock_safety_wdtcon
 .text._exit    0x8000b5ce       0x10 c:/hightec/toolchains/tricore/v4.6.6.1/bin/../lib/gcc/tricore/4.6.4/../../../../tricore/lib/tc161/short-double\libos.a(libos_exit.o)
                0x8000b5ce                _exit
 .text.__do_global_ctors_aux
                0x8000b5de       0x1a c:/hightec/toolchains/tricore/v4.6.6.1/bin/../lib/gcc/tricore/4.6.4/tc161/short-double/crtend.o
 .text.call___do_global_ctors_aux
                0x8000b5f8        0x0 c:/hightec/toolchains/tricore/v4.6.6.1/bin/../lib/gcc/tricore/4.6.4/tc161/short-double/crtend.o
 *(.gnu.linkonce.t.*)
                0x8000b5f8                PROVIDE (__text_end, .)
                0x8000b5f8                . = ALIGN (0x8)

.init           memory region -> PMU_PFLASH0
                0x8000b5f8       0x10
                0x8000b5f8                PROVIDE (__init_start, .)
 *(.init)
 .init          0x8000b5f8        0x0 c:/hightec/toolchains/tricore/v4.6.6.1/bin/../lib/gcc/tricore/4.6.4/tc161/short-double/crti.o
                0x8000b5f8                _init
 .init          0x8000b5f8        0x4 c:/hightec/toolchains/tricore/v4.6.6.1/bin/../lib/gcc/tricore/4.6.4/tc161/short-double/crtbegin.o
 .init          0x8000b5fc        0x4 c:/hightec/toolchains/tricore/v4.6.6.1/bin/../lib/gcc/tricore/4.6.4/tc161/short-double/crtend.o
 .init          0x8000b600        0x2 c:/hightec/toolchains/tricore/v4.6.6.1/bin/../lib/gcc/tricore/4.6.4/tc161/short-double/crtn.o
 *(.init*)
                0x8000b602                PROVIDE (__init_end, .)
                0x8000b608                . = ALIGN (0x8)
 *fill*         0x8000b602        0x6 00

.fini           memory region -> PMU_PFLASH0
                0x8000b608        0x8
                0x8000b608                PROVIDE (__fini_start, .)
 *(.fini)
 .fini          0x8000b608        0x0 c:/hightec/toolchains/tricore/v4.6.6.1/bin/../lib/gcc/tricore/4.6.4/tc161/short-double/crti.o
                0x8000b608                _fini
 .fini          0x8000b608        0x4 c:/hightec/toolchains/tricore/v4.6.6.1/bin/../lib/gcc/tricore/4.6.4/tc161/short-double/crtbegin.o
 .fini          0x8000b60c        0x2 c:/hightec/toolchains/tricore/v4.6.6.1/bin/../lib/gcc/tricore/4.6.4/tc161/short-double/crtn.o
 *(.fini*)
                0x8000b60e                PROVIDE (__fini_end, .)
                0x8000b610                . = ALIGN (0x8)
 *fill*         0x8000b60e        0x2 00

.traptab        memory region -> PMU_PFLASH0
                0x8000b610        0x0
                0x8000b610                PROVIDE (__traptab_start, .)
 *(.traptab)
 *(.traptab*)
                0x8000b610                PROVIDE (__traptab_end, .)
                0x8000b610                . = ALIGN (0x8)

.inttab         memory region -> PMU_PFLASH0
                0x8000b610        0x0
                0x8000b610                PROVIDE (__inttab_start, .)
 *(.inttab)
 *(.inttab*)
                0x8000b610                PROVIDE (__inttab_end, .)
                0x8000b610                . = ALIGN (0x8)

.eh_frame       memory region -> PMU_PFLASH0
                0x8000b610        0x0
                0x8000b610                PROVIDE (__eh_frame_start, .)
 *(.eh_frame)
 *(.eh_frame*)
                0x8000b610                PROVIDE (__eh_frame_end, .)
                0x8000b610                . = ALIGN (0x8)

.zdata          memory region -> DMI_DSPR
                0xd0000000        0x0 load address 0x8000b610
                0xd0000000                PROVIDE (__zdata_start, .)
 *(.zdata)
 *(.zdata*)
 *(.zdata.rodata)
 *(.zdata.rodata*)
 *(.zrodata)
 *(.zrodata*)
 *(.gnu.linkonce.z.*)
 *(.gnu.linkonce.zr.*)
                0xd0000000                PROVIDE (__zdata_end, .)
                0xd0000000                . = ALIGN (0x8)

.zbss           memory region -> DMI_DSPR
                0xd0000000        0x0 load address 0x8000b610
                0xd0000000                PROVIDE (__zbss_start, .)
 *(.zbss)
 *(.zbss*)
 *(.gnu.linkonce.zb.*)
                0xd0000000                PROVIDE (__zbss_end, .)
                0xd0000000                . = ALIGN (0x8)

.bbss           memory region -> DMI_DSPR
                0xd0000000        0x0 load address 0x8000b610
                0xd0000000                PROVIDE (__bbss_start, .)
 *(.bbss)
 *(.bbss*)
                0xd0000000                PROVIDE (__bbss_end, .)
                0xd0000000                . = ALIGN (0x8)

.bdata          memory region -> DMI_DSPR
                0xd0000000        0x0 load address 0x8000b610
                0xd0000000                PROVIDE (__bdata_start, .)
 *(.bdata)
 *(.bdata*)
                0xd0000000                PROVIDE (__bdata_end, .)
                0xd0000000                . = ALIGN (0x8)

.sdata2         memory region -> PMU_PFLASH0
                0x8000b610        0x0
                0x8000b610                PROVIDE (__sdata2_start, .)
 *(.sdata.rodata)
 *(.sdata.rodata*)
 *(.srodata)
 *(.srodata*)
 *(.gnu.linkonce.sr.*)
                0x8000b610                PROVIDE (__sdata2_end, .)
                0x8000b610                . = ALIGN (0x8)

.sdata          memory region -> DMI_DSPR
                0xd0000000        0x0 load address 0x8000b610
                0xd0000000                PROVIDE (__sdata_start, .)
 *(.sdata)
 *(.sdata*)
 *(.gnu.linkonce.s.*)
                0xd0000000                PROVIDE (__sdata_end, .)
                0xd0000000                . = ALIGN (0x8)

.sbss           memory region -> DMI_DSPR
                0xd0000000        0x0 load address 0x8000b610
                0xd0000000                PROVIDE (__sbss_start, .)
 *(.sbss)
 *(.sbss*)
 *(.gnu.linkonce.sb.*)
                0xd0000000                PROVIDE (__sbss_end, .)
                0xd0000000                . = ALIGN (0x8)

.rodata         memory region -> PMU_PFLASH0
                0x8000b610      0x6c8
                0x8000b610                PROVIDE (__rodata_start, .)
 *(.rodata)
 .rodata        0x8000b610       0x5c src\Cfg\Can\Can_Cfg.o
                0x8000b610                Can_HardwareObjectConfigData
                0x8000b650                Can_HohConfigData
                0x8000b654                Can_ControllerConfigData
                0x8000b65c                Can_ControllerPCConfigData
 .rodata        0x8000b66c       0x40 src\Cfg\CanIf\CanIf_Cfg.o
                0x8000b66c                CanIfTxCh
                0x8000b67c                CanIfRxCh
 .rodata        0x8000b6ac       0x16 src\Cfg\CanTp\CanTp_Cfg.o
                0x8000b6ac                CanTp_RxSdu
                0x8000b6bc                CanTp_TxSdu
 *fill*         0x8000b6c2        0x2 00
 .rodata        0x8000b6c4      0x114 src\Cfg\Dcm\Dcm_Cfg.o
                0x8000b6c4                Dcm_ServiceTable
                0x8000b754                Dcm_SessionRow
                0x8000b760                Dcm_ResetRow
                0x8000b764                Dcm_ReadDidRow
                0x8000b774                Dcm_SecurityRow
                0x8000b784                Dcm_ComControlRow
                0x8000b790                Dcm_WriteDidRow
                0x8000b79c                Dcm_RoutineControlRow
                0x8000b7cc                Dcm_DownloadRow
                0x8000b7cd                Dcm_testPresentRow
                0x8000b7ce                Dcm_DTCSettingRow
 .rodata        0x8000b7d8       0x3c src\Cfg\FL\FL_Cfg.o
                0x8000b7d8                FL_BlkInfo
 .rodata        0x8000b814       0x68 src\Cfg\Mcu\Mcu_PBCfg.o
                0x8000b864                Mcu_ConfigRoot
 .rodata        0x8000b87c      0x400 src\Core\Cal\Cal.o
                0x8000b87c                Cal_Crc32Tab
 .rodata        0x8000bc7c        0x3 src\Core\Dcm\Dcm_Dsp.o
 .rodata        0x8000bc7f       0x1a src\Core\Fl\FL.o
 *fill*         0x8000bc99        0x3 00
 .rodata        0x8000bc9c        0xc src\Driver\includes\Mcal_TcLib.o
 .rodata        0x8000bca8       0x30 src\Driver\includes\Mcal_WdgLib.o
 *(.rodata*)
 *(.gnu.linkonce.r.*)
 *(.jcr.*)
                0x8000bcd8                PROVIDE (__rodata_end, .)
                0x8000bcd8                . = ALIGN (0x8)

.data           memory region -> DMI_DSPR
                0xd0000000       0x60 load address 0x8000bcd8
                0xd0000000                PROVIDE (__data_start, .)
 *(.data)
 .data          0xd0000000       0x18 src\Core\Fl\FL.o
 .data          0xd0000018        0x8 src\Driver\Fls\Fls.o
                0xd0000018                BLFlash_InfoPtr
 .data          0xd0000020        0x8 src\Driver\MCU\Mcu.o
                0xd0000020                Mcu_ResetStatusVal
 .data          0xd0000028       0x18 src\Driver\includes\Mcal_TcLib.o
 .data          0xd0000040       0x18 src\Driver\includes\Mcal_WdgLib.o
 .data          0xd0000058        0x8 c:/hightec/toolchains/tricore/v4.6.6.1/bin/../lib/gcc/tricore/4.6.4/../../../../tricore/lib/tc161/short-double\libdnk_c.a(rand.o)
                0xd0000058                _Randseed
 *(.data*)
 *(.gnu.linkonce.d.*)
                0xd0000060                PROVIDE (__data_end, .)
                0xd0000060                . = ALIGN (0x8)

.jcr            memory region -> PMI_PSPR
                0xc0000000        0x0
 .jcr           0xc0000000        0x0 c:/hightec/toolchains/tricore/v4.6.6.1/bin/../lib/gcc/tricore/4.6.4/tc161/short-double/crtbegin.o

.bss            memory region -> DMI_DSPR
                0xd0000060      0xa68 load address 0x8000bd38
                0xd0000060                PROVIDE (__bss_start, .)
 *(.bss)
 .bss           0xd0000060        0x8 c:/hightec/toolchains/tricore/v4.6.6.1/bin/../lib/gcc/tricore/4.6.4/tc161/short-double/crtbegin.o
 .bss           0xd0000068       0x10 src\Core\Appl\Appl.o
                0xd0000068                FunctService255
 .bss           0xd0000078       0x60 src\Core\CanTp\CanTp.o
 .bss           0xd00000d8      0x488 src\Core\Dcm\Dcm.o
                0xd00000d8                Dcm_MainRxBuff
                0xd00004d8                Dcm_MainTxBuff
                0xd0000528                dcmDummyDefault
                0xd000055c                TestFlag
 .bss           0xd0000560       0x18 src\Core\Dcm\Dcm_Dsp.o
 .bss           0xd0000578      0x380 src\Core\Fl\FL.o
                0xd0000578                FL_NvmInfo
 .bss           0xd00008f8       0x68 src\Core\SecM\SecM.o
                0xd00008f8                SecM_CrcDataBuffer
 .bss           0xd0000960       0x90 src\Driver\Can\Can.o
 .bss           0xd00009f0        0x8 src\Driver\MCU\Mcu.o
                0xd00009f0                Mcu_kConfigPtr
                0xd00009f4                Mcu_ClockSetting
 .bss           0xd00009f8       0x18 src\Driver\includes\Mcal_TcLib.o
 .bss           0xd0000a10       0x28 src\Driver\includes\Mcal_WdgLib.o
 .bss           0xd0000a38       0x90 c:/hightec/toolchains/tricore/v4.6.6.1/bin/../lib/gcc/tricore/4.6.4/../../../../tricore/lib/tc161/short-double\libdnk_c.a(rand.o)
                0xd0000a38                _Tls_setup__Randseed
                0xd0000a3c                _Tls_setup__Randinit
                0xd0000a40                _Randinit
 *(.bss*)
 *(.gnu.linkonce.b.*)
                0xd0000ac8                PROVIDE (__bss_end, .)
                0xd0000ac8                . = ALIGN (0x8)

.pcptext        memory region -> PMU_PFLASH0
                0x8000bd38        0x0
                0x8000bd38                PROVIDE (__pcptext_start, .)
                0x8000bd38                PROVIDE (__pcptext_end, .)
                0x8000bd38                . = ALIGN (0x8)

.pcpdata        memory region -> PMU_PFLASH0
                0x8000bd38        0x0
                0x8000bd38                PROVIDE (__pcpdata_start, .)
                0x8000bd38                PROVIDE (__pcpdata_end, .)
                0x8000bd38                . = ALIGN (0x8)

.ctors          memory region -> PMU_PFLASH0
                0x8000bd38       0x10
                0x8000bd38                __CTOR_LIST__ = .
                0x8000bd38        0x4 LONG 0x2 (((__CTOR_END__ - __CTOR_LIST__) / 0x4) - 0x2)
 *crtbegin.o(.ctors)
 .ctors         0x8000bd3c        0x4 c:/hightec/toolchains/tricore/v4.6.6.1/bin/../lib/gcc/tricore/4.6.4/tc161/short-double/crtbegin.o
 *(EXCLUDE_FILE(*crtend.o) .ctors)
 *(SORT(.ctors.*))
 *(.ctors)
 .ctors         0x8000bd40        0x4 c:/hightec/toolchains/tricore/v4.6.6.1/bin/../lib/gcc/tricore/4.6.4/tc161/short-double/crtend.o
                0x8000bd44        0x4 LONG 0x0
                0x8000bd48                __CTOR_END__ = .
                0x8000bd48                . = ALIGN (0x8)

.dtors          memory region -> PMU_PFLASH0
                0x8000bd48       0x10
                0x8000bd48                __DTOR_LIST__ = .
                0x8000bd48        0x4 LONG 0x2 (((__DTOR_END__ - __DTOR_LIST__) / 0x4) - 0x2)
 *crtbegin.o(.dtors)
 .dtors         0x8000bd4c        0x4 c:/hightec/toolchains/tricore/v4.6.6.1/bin/../lib/gcc/tricore/4.6.4/tc161/short-double/crtbegin.o
 *(EXCLUDE_FILE(*crtend.o) .dtors)
 *(SORT(.dtors.*))
 *(.dtors)
 .dtors         0x8000bd50        0x4 c:/hightec/toolchains/tricore/v4.6.6.1/bin/../lib/gcc/tricore/4.6.4/tc161/short-double/crtend.o
                0x8000bd54        0x4 LONG 0x0
                0x8000bd58                __DTOR_END__ = .
                0x8000bd58                . = ALIGN (0x8)

.clear_sec      memory region -> PMU_PFLASH0
                0x8000bd58       0x28
                0x8000bd58                . = ALIGN (0x8)
                0x8000bd58                PROVIDE (__clear_table, .)
                0x8000bd58        0x4 LONG 0xd0000060 (0x0 + ADDR (.bss))
                0x8000bd5c        0x4 LONG 0xa68 SIZEOF (.bss)
                0x8000bd60        0x4 LONG 0xd0000000 (0x0 + ADDR (.sbss))
                0x8000bd64        0x4 LONG 0x0 SIZEOF (.sbss)
                0x8000bd68        0x4 LONG 0xd0000000 (0x0 + ADDR (.zbss))
                0x8000bd6c        0x4 LONG 0x0 SIZEOF (.zbss)
                0x8000bd70        0x4 LONG 0xd0000000 (0x0 + ADDR (.bbss))
                0x8000bd74        0x4 LONG 0x0 SIZEOF (.bbss)
                0x8000bd78        0x4 LONG 0xffffffff
                0x8000bd7c        0x4 LONG 0xffffffff

.copy_sec       memory region -> PMU_PFLASH0
                0x8000bd80       0x3c
                0x8000bd80                . = ALIGN (0x8)
                0x8000bd80                PROVIDE (__copy_table, .)
                0x8000bd80        0x4 LONG 0x8000bcd8 LOADADDR (.data)
                0x8000bd84        0x4 LONG 0xd0000000 (0x0 + ADDR (.data))
                0x8000bd88        0x4 LONG 0x60 SIZEOF (.data)
                0x8000bd8c        0x4 LONG 0x8000b610 LOADADDR (.sdata)
                0x8000bd90        0x4 LONG 0xd0000000 (0x0 + ADDR (.sdata))
                0x8000bd94        0x4 LONG 0x0 SIZEOF (.sdata)
                0x8000bd98        0x4 LONG 0x8000b610 LOADADDR (.zdata)
                0x8000bd9c        0x4 LONG 0xd0000000 (0x0 + ADDR (.zdata))
                0x8000bda0        0x4 LONG 0x0 SIZEOF (.zdata)
                0x8000bda4        0x4 LONG 0x8000b610 LOADADDR (.bdata)
                0x8000bda8        0x4 LONG 0xd0000000 (0x0 + ADDR (.bdata))
                0x8000bdac        0x4 LONG 0x0 SIZEOF (.bdata)
                0x8000bdb0        0x4 LONG 0xffffffff
                0x8000bdb4        0x4 LONG 0xffffffff
                0x8000bdb8        0x4 LONG 0xffffffff

.ustack         memory region -> DMI_DSPR
                0xd0000ac8      0x400
                0xd0000ac8                . = ALIGN (0x8)
                0xd0000ac8                __USTACK_BEGIN = .
                0xd0000ec8                . = (. + __USTACK_SIZE)
 *fill*         0xd0000ac8      0x400 00
                0xd0000ec8                . = ALIGN (0x8)
                0xd0000ec8                __USTACK = .
                0xd0000ec8                __USTACK_END = .

.istack         memory region -> DMI_DSPR
                0xd0000ec8      0x100
                0xd0000ec8                . = ALIGN (0x8)
                0xd0000ec8                __ISTACK_BEGIN = .
                0xd0000fc8                . = (. + __ISTACK_SIZE)
 *fill*         0xd0000ec8      0x100 00
                0xd0000fc8                . = ALIGN (0x8)
                0xd0000fc8                __ISTACK = .
                0xd0000fc8                __ISTACK_END = .

.heap           memory region -> DMI_DSPR
                0xd0000fc8     0x1000
                0xd0000fc8                . = ALIGN (0x8)
                0xd0000fc8                __HEAP_BEGIN = .
                0xd0000fc8                __HEAP = .
                0xd0001fc8                . = (. + __HEAP_SIZE)
 *fill*         0xd0000fc8     0x1000 00
                0xd0001fc8                . = ALIGN (0x8)
                0xd0001fc8                __HEAP_END = .

.csa            memory region -> DMI_DSPR
                0xd0001fc8     0x4038
                0xd0002000                . = ALIGN (0x40)
 *fill*         0xd0001fc8       0x38 00
                0xd0002000                __CSA_BEGIN = .
                0xd0002000                __CSA = .
                0xd0006000                . = (. + __CSA_SIZE)
 *fill*         0xd0002000     0x4000 00
                0xd0006000                . = ALIGN (0x40)
                0xd0006000                __CSA_END = .

.Bootloader_CODE memory region -> PMU_PFLASH0
                0x80000000        0x0
                0x00000000                PROVIDE (__Bootloader_CODE_start, 0x80000000)
 *(.text*)
                0x00001000                PROVIDE (__Bootloader_CODE_end, 0x80001000)

.BL_NvmInf      memory region -> PMU_DFLASH0_NVM
                0xaf000000       0x68
                0x5e000000                PROVIDE (__BL_NvmInf_start, 0xaf000000)
 *(.BL_NvmInf*)
 .BL_NvmInf     0xaf000000       0x68 src\Core\Fl\FL.o
                0xaf000000                BL_Information
                0x5e004000                PROVIDE (__BL_NvmInf_end, 0xaf004000)
OUTPUT(HTCU200_FBL.elf elf32-tricore)

.version_info   memory region -> *default*
                0x00000000    0x36ebd
 .version_info  0x00000000     0x17a4 c:/hightec/toolchains/tricore/v4.6.6.1/bin/../lib/gcc/tricore/4.6.4/tc161/short-double/crtbegin.o
 .version_info  0x000017a4     0x1a73 src\Cfg\Can\Can_Cfg.o
 .version_info  0x00003217     0x1a97 src\Cfg\CanIf\CanIf_Cfg.o
 .version_info  0x00004cae     0x1a97 src\Cfg\CanTp\CanTp_Cfg.o
 .version_info  0x00006745     0x1a73 src\Cfg\Dcm\Dcm_Cfg.o
 .version_info  0x000081b8     0x1a61 src\Cfg\FL\FL_Cfg.o
 .version_info  0x00009c19     0x1a85 src\Cfg\Mcu\Mcu_PBCfg.o
 .version_info  0x0000b69e     0x1a6a src\Core\Appl\Appl.o
 .version_info  0x0000d108     0x1a58 src\Core\Cal\Cal.o
 .version_info  0x0000eb60     0x1a7c src\Core\CanIf\CanIf.o
 .version_info  0x000105dc     0x1a7c src\Core\CanTp\CanTp.o
 .version_info  0x00012058     0x1a58 src\Core\Dcm\Dcm.o
 .version_info  0x00013ab0     0x1a7c src\Core\Dcm\Dcm_Dsp.o
 .version_info  0x0001552c     0x1a46 src\Core\Fl\FL.o
 .version_info  0x00016f72     0x1a6a src\Core\SecM\SecM.o
 .version_info  0x000189dc     0x1a6a src\Driver\Can\Can.o
 .version_info  0x0001a446     0x1a6a src\Driver\Fls\Fls.o
 .version_info  0x0001beb0     0x1a6a src\Driver\MCU\Mcu.o
 .version_info  0x0001d91a     0x1a8e src\Driver\MCU\Mcu_Crc.o
 .version_info  0x0001f3a8     0x1a8e src\Driver\MCU\Mcu_Dma.o
 .version_info  0x00020e36     0x1abb src\Driver\MCU\Mcu_Platform.o
 .version_info  0x000228f1     0x1a8e src\Driver\MCU\Mcu_Ver.o
 .version_info  0x0002437f     0x1a6a src\Driver\Stm\STM.o
 .version_info  0x00025de9     0x1a6a src\Driver\Wdg\Wdg.o
 .version_info  0x00027853     0x1aa0 src\Driver\includes\Mcal.o
 .version_info  0x000292f3     0x1adf src\Driver\includes\Mcal_DmaLib.o
 .version_info  0x0002add2     0x1ad6 src\Driver\includes\Mcal_TcLib.o
 .version_info  0x0002c8a8     0x1adf src\Driver\includes\Mcal_WdgLib.o
 .version_info  0x0002e387     0x1aa0 src\Driver\includes\SchM.o
 .version_info  0x0002fe27     0x1a10 src\main.o
 .version_info  0x00031837      0xfcb c:/hightec/toolchains/tricore/v4.6.6.1/bin/../lib/gcc/tricore/4.6.4/../../../../tricore/lib/tc161/short-double\libdnk_c.a(rand.o)
 .version_info  0x00032802      0xfcd c:/hightec/toolchains/tricore/v4.6.6.1/bin/../lib/gcc/tricore/4.6.4/../../../../tricore/lib/tc161/short-double\libdnk_c.a(srand.o)
 .version_info  0x000337cf      0xfa1 c:/hightec/toolchains/tricore/v4.6.6.1/bin/../lib/gcc/tricore/4.6.4/../../../../tricore/lib/tc161/short-double\libos.a(wdtcon.o)
 .version_info  0x00034770      0xfb1 c:/hightec/toolchains/tricore/v4.6.6.1/bin/../lib/gcc/tricore/4.6.4/../../../../tricore/lib/tc161/short-double\libos.a(libos_exit.o)
 .version_info  0x00035721     0x179c c:/hightec/toolchains/tricore/v4.6.6.1/bin/../lib/gcc/tricore/4.6.4/tc161/short-double/crtend.o

.comment        memory region -> *default*
                0x00000000       0x46
 .comment       0x00000000       0x46 c:/hightec/toolchains/tricore/v4.6.6.1/bin/../lib/gcc/tricore/4.6.4/tc161/short-double/crtbegin.o
                                 0x47 (size before relaxing)
 .comment       0x00000000       0x47 src\Cfg\Can\Can_Cfg.o
 .comment       0x00000000       0x47 src\Cfg\CanIf\CanIf_Cfg.o
 .comment       0x00000000       0x47 src\Cfg\CanTp\CanTp_Cfg.o
 .comment       0x00000000       0x47 src\Cfg\Dcm\Dcm_Cfg.o
 .comment       0x00000000       0x47 src\Cfg\FL\FL_Cfg.o
 .comment       0x00000000       0x47 src\Cfg\Mcu\Mcu_PBCfg.o
 .comment       0x00000000       0x47 src\Core\Appl\Appl.o
 .comment       0x00000000       0x47 src\Core\Cal\Cal.o
 .comment       0x00000000       0x47 src\Core\CanIf\CanIf.o
 .comment       0x00000000       0x47 src\Core\CanTp\CanTp.o
 .comment       0x00000000       0x47 src\Core\Dcm\Dcm.o
 .comment       0x00000000       0x47 src\Core\Dcm\Dcm_Dsp.o
 .comment       0x00000000       0x47 src\Core\Fl\FL.o
 .comment       0x00000000       0x47 src\Core\SecM\SecM.o
 .comment       0x00000000       0x47 src\Driver\Can\Can.o
 .comment       0x00000000       0x47 src\Driver\Fls\Fls.o
 .comment       0x00000000       0x47 src\Driver\MCU\Mcu.o
 .comment       0x00000000       0x47 src\Driver\MCU\Mcu_Crc.o
 .comment       0x00000000       0x47 src\Driver\MCU\Mcu_Dma.o
 .comment       0x00000000       0x47 src\Driver\MCU\Mcu_Platform.o
 .comment       0x00000000       0x47 src\Driver\MCU\Mcu_Ver.o
 .comment       0x00000000       0x47 src\Driver\Stm\STM.o
 .comment       0x00000000       0x47 src\Driver\Wdg\Wdg.o
 .comment       0x00000000       0x47 src\Driver\includes\Mcal.o
 .comment       0x00000000       0x47 src\Driver\includes\Mcal_DmaLib.o
 .comment       0x00000000       0x47 src\Driver\includes\Mcal_TcLib.o
 .comment       0x00000000       0x47 src\Driver\includes\Mcal_WdgLib.o
 .comment       0x00000000       0x47 src\Driver\includes\SchM.o
 .comment       0x00000000       0x47 src\main.o
 .comment       0x00000000       0x47 c:/hightec/toolchains/tricore/v4.6.6.1/bin/../lib/gcc/tricore/4.6.4/../../../../tricore/lib/tc161/short-double\libdnk_c.a(rand.o)
 .comment       0x00000000       0x47 c:/hightec/toolchains/tricore/v4.6.6.1/bin/../lib/gcc/tricore/4.6.4/../../../../tricore/lib/tc161/short-double\libdnk_c.a(srand.o)
 .comment       0x00000000       0x47 c:/hightec/toolchains/tricore/v4.6.6.1/bin/../lib/gcc/tricore/4.6.4/../../../../tricore/lib/tc161/short-double\libos.a(wdtcon.o)
 .comment       0x00000000       0x47 c:/hightec/toolchains/tricore/v4.6.6.1/bin/../lib/gcc/tricore/4.6.4/../../../../tricore/lib/tc161/short-double\libos.a(libos_exit.o)
 .comment       0x00000000       0x47 c:/hightec/toolchains/tricore/v4.6.6.1/bin/../lib/gcc/tricore/4.6.4/tc161/short-double/crtend.o

.debug_info     memory region -> *default*
                0x00000000    0x2a3d3
 .debug_info    0x00000000      0x63c src\Cfg\Can\Can_Cfg.o
 .debug_info    0x0000063c      0x398 src\Cfg\CanIf\CanIf_Cfg.o
 .debug_info    0x000009d4      0x2f6 src\Cfg\CanTp\CanTp_Cfg.o
 .debug_info    0x00000cca      0xbdd src\Cfg\Dcm\Dcm_Cfg.o
 .debug_info    0x000018a7      0x1f2 src\Cfg\FL\FL_Cfg.o
 .debug_info    0x00001a99      0x59f src\Cfg\Mcu\Mcu_PBCfg.o
 .debug_info    0x00002038      0xfb7 src\Core\Appl\Appl.o
 .debug_info    0x00002fef      0x25e src\Core\Cal\Cal.o
 .debug_info    0x0000324d      0x797 src\Core\CanIf\CanIf.o
 .debug_info    0x000039e4     0x15a7 src\Core\CanTp\CanTp.o
 .debug_info    0x00004f8b      0xf57 src\Core\Dcm\Dcm.o
 .debug_info    0x00005ee2     0x1ee9 src\Core\Dcm\Dcm_Dsp.o
 .debug_info    0x00007dcb     0x1394 src\Core\Fl\FL.o
 .debug_info    0x0000915f      0x7ea src\Core\SecM\SecM.o
 .debug_info    0x00009949     0x15a8 src\Driver\Can\Can.o
 .debug_info    0x0000aef1      0x4cd src\Driver\Fls\Fls.o
 .debug_info    0x0000b3be     0x7e98 src\Driver\MCU\Mcu.o
 .debug_info    0x00013256      0x14a src\Driver\MCU\Mcu_Crc.o
 .debug_info    0x000133a0     0x3994 src\Driver\MCU\Mcu_Dma.o
 .debug_info    0x00016d34     0x76fe src\Driver\MCU\Mcu_Platform.o
 .debug_info    0x0001e432      0x14a src\Driver\MCU\Mcu_Ver.o
 .debug_info    0x0001e57c      0x1cc src\Driver\Stm\STM.o
 .debug_info    0x0001e748      0x40d src\Driver\Wdg\Wdg.o
 .debug_info    0x0001eb55      0x1b1 src\Driver\includes\Mcal.o
 .debug_info    0x0001ed06     0x448f src\Driver\includes\Mcal_DmaLib.o
 .debug_info    0x00023195     0x45b0 src\Driver\includes\Mcal_TcLib.o
 .debug_info    0x00027745      0xd92 src\Driver\includes\Mcal_WdgLib.o
 .debug_info    0x000284d7     0x1383 src\Driver\includes\SchM.o
 .debug_info    0x0002985a       0x81 src\crt0-tc2x.o
 .debug_info    0x000298db      0x146 src\main.o
 .debug_info    0x00029a21      0x2a0 c:/hightec/toolchains/tricore/v4.6.6.1/bin/../lib/gcc/tricore/4.6.4/../../../../tricore/lib/tc161/short-double\libdnk_c.a(rand.o)
 .debug_info    0x00029cc1      0x1cc c:/hightec/toolchains/tricore/v4.6.6.1/bin/../lib/gcc/tricore/4.6.4/../../../../tricore/lib/tc161/short-double\libdnk_c.a(srand.o)
 .debug_info    0x00029e8d      0x32c c:/hightec/toolchains/tricore/v4.6.6.1/bin/../lib/gcc/tricore/4.6.4/../../../../tricore/lib/tc161/short-double\libos.a(wdtcon.o)
 .debug_info    0x0002a1b9      0x1b9 c:/hightec/toolchains/tricore/v4.6.6.1/bin/../lib/gcc/tricore/4.6.4/../../../../tricore/lib/tc161/short-double\libos.a(libos_exit.o)
 .debug_info    0x0002a372       0x61 c:/hightec/toolchains/tricore/v4.6.6.1/bin/../lib/gcc/tricore/4.6.4/tc161/short-double/crtn.o

.debug_abbrev   memory region -> *default*
                0x00000000     0x2334
 .debug_abbrev  0x00000000       0x8a src\Cfg\Can\Can_Cfg.o
 .debug_abbrev  0x0000008a       0x9c src\Cfg\CanIf\CanIf_Cfg.o
 .debug_abbrev  0x00000126       0x8a src\Cfg\CanTp\CanTp_Cfg.o
 .debug_abbrev  0x000001b0       0xce src\Cfg\Dcm\Dcm_Cfg.o
 .debug_abbrev  0x0000027e       0x74 src\Cfg\FL\FL_Cfg.o
 .debug_abbrev  0x000002f2       0xd2 src\Cfg\Mcu\Mcu_PBCfg.o
 .debug_abbrev  0x000003c4      0x27f src\Core\Appl\Appl.o
 .debug_abbrev  0x00000643       0xa5 src\Core\Cal\Cal.o
 .debug_abbrev  0x000006e8      0x126 src\Core\CanIf\CanIf.o
 .debug_abbrev  0x0000080e      0x121 src\Core\CanTp\CanTp.o
 .debug_abbrev  0x0000092f      0x20f src\Core\Dcm\Dcm.o
 .debug_abbrev  0x00000b3e      0x1a6 src\Core\Dcm\Dcm_Dsp.o
 .debug_abbrev  0x00000ce4      0x1d4 src\Core\Fl\FL.o
 .debug_abbrev  0x00000eb8      0x134 src\Core\SecM\SecM.o
 .debug_abbrev  0x00000fec      0x19c src\Driver\Can\Can.o
 .debug_abbrev  0x00001188       0xd0 src\Driver\Fls\Fls.o
 .debug_abbrev  0x00001258      0x268 src\Driver\MCU\Mcu.o
 .debug_abbrev  0x000014c0       0x21 src\Driver\MCU\Mcu_Crc.o
 .debug_abbrev  0x000014e1      0x153 src\Driver\MCU\Mcu_Dma.o
 .debug_abbrev  0x00001634      0x2af src\Driver\MCU\Mcu_Platform.o
 .debug_abbrev  0x000018e3       0x21 src\Driver\MCU\Mcu_Ver.o
 .debug_abbrev  0x00001904       0x69 src\Driver\Stm\STM.o
 .debug_abbrev  0x0000196d       0xb0 src\Driver\Wdg\Wdg.o
 .debug_abbrev  0x00001a1d       0x6a src\Driver\includes\Mcal.o
 .debug_abbrev  0x00001a87      0x1b7 src\Driver\includes\Mcal_DmaLib.o
 .debug_abbrev  0x00001c3e      0x212 src\Driver\includes\Mcal_TcLib.o
 .debug_abbrev  0x00001e50      0x1a5 src\Driver\includes\Mcal_WdgLib.o
 .debug_abbrev  0x00001ff5       0x4b src\Driver\includes\SchM.o
 .debug_abbrev  0x00002040       0x14 src\crt0-tc2x.o
 .debug_abbrev  0x00002054       0x38 src\main.o
 .debug_abbrev  0x0000208c       0xa3 c:/hightec/toolchains/tricore/v4.6.6.1/bin/../lib/gcc/tricore/4.6.4/../../../../tricore/lib/tc161/short-double\libdnk_c.a(rand.o)
 .debug_abbrev  0x0000212f       0x6a c:/hightec/toolchains/tricore/v4.6.6.1/bin/../lib/gcc/tricore/4.6.4/../../../../tricore/lib/tc161/short-double\libdnk_c.a(srand.o)
 .debug_abbrev  0x00002199      0x128 c:/hightec/toolchains/tricore/v4.6.6.1/bin/../lib/gcc/tricore/4.6.4/../../../../tricore/lib/tc161/short-double\libos.a(wdtcon.o)
 .debug_abbrev  0x000022c1       0x61 c:/hightec/toolchains/tricore/v4.6.6.1/bin/../lib/gcc/tricore/4.6.4/../../../../tricore/lib/tc161/short-double\libos.a(libos_exit.o)
 .debug_abbrev  0x00002322       0x12 c:/hightec/toolchains/tricore/v4.6.6.1/bin/../lib/gcc/tricore/4.6.4/tc161/short-double/crtn.o

.debug_line     memory region -> *default*
                0x00000000     0x8107
 .debug_line    0x00000000      0x212 src\Cfg\Can\Can_Cfg.o
 .debug_line    0x00000212      0x36b src\Cfg\CanIf\CanIf_Cfg.o
 .debug_line    0x0000057d      0x31a src\Cfg\CanTp\CanTp_Cfg.o
 .debug_line    0x00000897      0x38a src\Cfg\Dcm\Dcm_Cfg.o
 .debug_line    0x00000c21      0x1a9 src\Cfg\FL\FL_Cfg.o
 .debug_line    0x00000dca      0x32a src\Cfg\Mcu\Mcu_PBCfg.o
 .debug_line    0x000010f4      0x9ad src\Core\Appl\Appl.o
 .debug_line    0x00001aa1      0x284 src\Core\Cal\Cal.o
 .debug_line    0x00001d25      0x2e6 src\Core\CanIf\CanIf.o
 .debug_line    0x0000200b      0x659 src\Core\CanTp\CanTp.o
 .debug_line    0x00002664      0x6cf src\Core\Dcm\Dcm.o
 .debug_line    0x00002d33      0x986 src\Core\Dcm\Dcm_Dsp.o
 .debug_line    0x000036b9      0x8d6 src\Core\Fl\FL.o
 .debug_line    0x00003f8f      0x40c src\Core\SecM\SecM.o
 .debug_line    0x0000439b      0xa37 src\Driver\Can\Can.o
 .debug_line    0x00004dd2      0x226 src\Driver\Fls\Fls.o
 .debug_line    0x00004ff8      0x528 src\Driver\MCU\Mcu.o
 .debug_line    0x00005520      0x317 src\Driver\MCU\Mcu_Crc.o
 .debug_line    0x00005837      0x3ac src\Driver\MCU\Mcu_Dma.o
 .debug_line    0x00005be3      0x497 src\Driver\MCU\Mcu_Platform.o
 .debug_line    0x0000607a      0x2f4 src\Driver\MCU\Mcu_Ver.o
 .debug_line    0x0000636e      0x3d3 src\Driver\Stm\STM.o
 .debug_line    0x00006741      0x400 src\Driver\Wdg\Wdg.o
 .debug_line    0x00006b41      0x2a5 src\Driver\includes\Mcal.o
 .debug_line    0x00006de6      0x323 src\Driver\includes\Mcal_DmaLib.o
 .debug_line    0x00007109      0x371 src\Driver\includes\Mcal_TcLib.o
 .debug_line    0x0000747a      0x388 src\Driver\includes\Mcal_WdgLib.o
 .debug_line    0x00007802      0x1f8 src\Driver\includes\SchM.o
 .debug_line    0x000079fa      0x121 src\crt0-tc2x.o
 .debug_line    0x00007b1b      0x2af src\main.o
 .debug_line    0x00007dca       0x9e c:/hightec/toolchains/tricore/v4.6.6.1/bin/../lib/gcc/tricore/4.6.4/../../../../tricore/lib/tc161/short-double\libdnk_c.a(rand.o)
 .debug_line    0x00007e68       0x88 c:/hightec/toolchains/tricore/v4.6.6.1/bin/../lib/gcc/tricore/4.6.4/../../../../tricore/lib/tc161/short-double\libdnk_c.a(srand.o)
 .debug_line    0x00007ef0      0x160 c:/hightec/toolchains/tricore/v4.6.6.1/bin/../lib/gcc/tricore/4.6.4/../../../../tricore/lib/tc161/short-double\libos.a(wdtcon.o)
 .debug_line    0x00008050       0x72 c:/hightec/toolchains/tricore/v4.6.6.1/bin/../lib/gcc/tricore/4.6.4/../../../../tricore/lib/tc161/short-double\libos.a(libos_exit.o)
 .debug_line    0x000080c2       0x45 c:/hightec/toolchains/tricore/v4.6.6.1/bin/../lib/gcc/tricore/4.6.4/tc161/short-double/crtn.o

.debug_macinfo  memory region -> *default*
                0x00000000   0x16f953
 .debug_macinfo
                0x00000000     0x4711 src\Cfg\Can\Can_Cfg.o
 .debug_macinfo
                0x00004711     0x494e src\Cfg\CanIf\CanIf_Cfg.o
 .debug_macinfo
                0x0000905f     0x48fc src\Cfg\CanTp\CanTp_Cfg.o
 .debug_macinfo
                0x0000d95b     0x47a3 src\Cfg\Dcm\Dcm_Cfg.o
 .debug_macinfo
                0x000120fe     0x3880 src\Cfg\FL\FL_Cfg.o
 .debug_macinfo
                0x0001597e     0x7cc3 src\Cfg\Mcu\Mcu_PBCfg.o
 .debug_macinfo
                0x0001d641     0xd56f src\Core\Appl\Appl.o
 .debug_macinfo
                0x0002abb0     0x3a03 src\Core\Cal\Cal.o
 .debug_macinfo
                0x0002e5b3     0x46ad src\Core\CanIf\CanIf.o
 .debug_macinfo
                0x00032c60     0x4c28 src\Core\CanTp\CanTp.o
 .debug_macinfo
                0x00037888     0x515f src\Core\Dcm\Dcm.o
 .debug_macinfo
                0x0003c9e7     0x51ac src\Core\Dcm\Dcm_Dsp.o
 .debug_macinfo
                0x00041b93     0x534e src\Core\Fl\FL.o
 .debug_macinfo
                0x00046ee1     0x4a7c src\Core\SecM\SecM.o
 .debug_macinfo
                0x0004b95d     0xa010 src\Driver\Can\Can.o
 .debug_macinfo
                0x0005596d     0x3a4e src\Driver\Fls\Fls.o
 .debug_macinfo
                0x000593bb    0x175db src\Driver\MCU\Mcu.o
 .debug_macinfo
                0x00070996     0x92ec src\Driver\MCU\Mcu_Crc.o
 .debug_macinfo
                0x00079c82    0x386bd src\Driver\MCU\Mcu_Dma.o
 .debug_macinfo
                0x000b233f    0x166b1 src\Driver\MCU\Mcu_Platform.o
 .debug_macinfo
                0x000c89f0     0x858b src\Driver\MCU\Mcu_Ver.o
 .debug_macinfo
                0x000d0f7b     0x7c06 src\Driver\Stm\STM.o
 .debug_macinfo
                0x000d8b81     0x7b88 src\Driver\Wdg\Wdg.o
 .debug_macinfo
                0x000e0709    0x12715 src\Driver\includes\Mcal.o
 .debug_macinfo
                0x000f2e1e    0x36c34 src\Driver\includes\Mcal_DmaLib.o
 .debug_macinfo
                0x00129a52    0x21dfd src\Driver\includes\Mcal_TcLib.o
 .debug_macinfo
                0x0014b84f    0x1d1f0 src\Driver\includes\Mcal_WdgLib.o
 .debug_macinfo
                0x00168a3f     0x3503 src\Driver\includes\SchM.o
 .debug_macinfo
                0x0016bf42     0x3a11 src\main.o

.debug_str      memory region -> *default*
                0x00000000      0xb20
 .debug_str     0x00000000        0x9 src\Cfg\CanIf\CanIf_Cfg.o
 .debug_str     0x00000009       0x27 src\Cfg\Dcm\Dcm_Cfg.o
 .debug_str     0x00000030       0x3d src\Cfg\Mcu\Mcu_PBCfg.o
 .debug_str     0x0000006d       0x70 src\Core\Appl\Appl.o
 .debug_str     0x000000dd        0x7 src\Core\Cal\Cal.o
 .debug_str     0x000000e4        0x9 src\Core\CanIf\CanIf.o
 .debug_str     0x000000ed       0xe6 src\Core\CanTp\CanTp.o
 .debug_str     0x000001d3       0x21 src\Core\Dcm\Dcm.o
 .debug_str     0x000001f4       0xac src\Core\Dcm\Dcm_Dsp.o
 .debug_str     0x000002a0       0x58 src\Core\Fl\FL.o
 .debug_str     0x000002f8        0x9 src\Core\SecM\SecM.o
 .debug_str     0x00000301       0x5f src\Driver\Can\Can.o
 .debug_str     0x00000360      0x231 src\Driver\MCU\Mcu.o
 .debug_str     0x00000591       0xbf src\Driver\MCU\Mcu_Dma.o
 .debug_str     0x00000650      0x226 src\Driver\MCU\Mcu_Platform.o
 .debug_str     0x00000876       0x12 src\Driver\Wdg\Wdg.o
 .debug_str     0x00000888       0xef src\Driver\includes\Mcal_DmaLib.o
 .debug_str     0x00000977      0x10d src\Driver\includes\Mcal_TcLib.o
 .debug_str     0x00000a84       0x8d src\Driver\includes\Mcal_WdgLib.o
 .debug_str     0x00000b11        0xf c:/hightec/toolchains/tricore/v4.6.6.1/bin/../lib/gcc/tricore/4.6.4/../../../../tricore/lib/tc161/short-double\libos.a(wdtcon.o)

.debug_frame    memory region -> *default*
                0x00000000     0x1d80
 .debug_frame   0x00000000      0x114 src\Core\Appl\Appl.o
 .debug_frame   0x00000114       0x4c src\Core\Cal\Cal.o
 .debug_frame   0x00000160       0x88 src\Core\CanIf\CanIf.o
 .debug_frame   0x000001e8      0x240 src\Core\CanTp\CanTp.o
 .debug_frame   0x00000428      0x308 src\Core\Dcm\Dcm.o
 .debug_frame   0x00000730      0x2cc src\Core\Dcm\Dcm_Dsp.o
 .debug_frame   0x000009fc      0x22c src\Core\Fl\FL.o
 .debug_frame   0x00000c28       0x88 src\Core\SecM\SecM.o
 .debug_frame   0x00000cb0      0x254 src\Driver\Can\Can.o
 .debug_frame   0x00000f04       0x38 src\Driver\Fls\Fls.o
 .debug_frame   0x00000f3c       0xec src\Driver\MCU\Mcu.o
 .debug_frame   0x00001028       0x38 src\Driver\MCU\Mcu_Dma.o
 .debug_frame   0x00001060       0xc4 src\Driver\MCU\Mcu_Platform.o
 .debug_frame   0x00001124       0x4c src\Driver\Stm\STM.o
 .debug_frame   0x00001170       0x9c src\Driver\Wdg\Wdg.o
 .debug_frame   0x0000120c       0x24 src\Driver\includes\Mcal.o
 .debug_frame   0x00001230       0x4c src\Driver\includes\Mcal_DmaLib.o
 .debug_frame   0x0000127c      0x128 src\Driver\includes\Mcal_TcLib.o
 .debug_frame   0x000013a4      0x178 src\Driver\includes\Mcal_WdgLib.o
 .debug_frame   0x0000151c      0x790 src\Driver\includes\SchM.o
 .debug_frame   0x00001cac       0x24 src\main.o
 .debug_frame   0x00001cd0       0x20 c:/hightec/toolchains/tricore/v4.6.6.1/bin/../lib/gcc/tricore/4.6.4/../../../../tricore/lib/tc161/short-double\libdnk_c.a(rand.o)
 .debug_frame   0x00001cf0       0x20 c:/hightec/toolchains/tricore/v4.6.6.1/bin/../lib/gcc/tricore/4.6.4/../../../../tricore/lib/tc161/short-double\libdnk_c.a(srand.o)
 .debug_frame   0x00001d10       0x50 c:/hightec/toolchains/tricore/v4.6.6.1/bin/../lib/gcc/tricore/4.6.4/../../../../tricore/lib/tc161/short-double\libos.a(wdtcon.o)
 .debug_frame   0x00001d60       0x20 c:/hightec/toolchains/tricore/v4.6.6.1/bin/../lib/gcc/tricore/4.6.4/../../../../tricore/lib/tc161/short-double\libos.a(libos_exit.o)

.debug_loc      memory region -> *default*
                0x00000000     0x2d05
 .debug_loc     0x00000000      0x1a0 src\Core\Appl\Appl.o
 .debug_loc     0x000001a0       0x60 src\Core\Cal\Cal.o
 .debug_loc     0x00000200       0xc0 src\Core\CanIf\CanIf.o
 .debug_loc     0x000002c0      0x380 src\Core\CanTp\CanTp.o
 .debug_loc     0x00000640      0x4c0 src\Core\Dcm\Dcm.o
 .debug_loc     0x00000b00      0x460 src\Core\Dcm\Dcm_Dsp.o
 .debug_loc     0x00000f60      0x360 src\Core\Fl\FL.o
 .debug_loc     0x000012c0       0xc0 src\Core\SecM\SecM.o
 .debug_loc     0x00001380      0x3a0 src\Driver\Can\Can.o
 .debug_loc     0x00001720       0x40 src\Driver\Fls\Fls.o
 .debug_loc     0x00001760      0x160 src\Driver\MCU\Mcu.o
 .debug_loc     0x000018c0       0x40 src\Driver\MCU\Mcu_Dma.o
 .debug_loc     0x00001900      0x120 src\Driver\MCU\Mcu_Platform.o
 .debug_loc     0x00001a20       0x60 src\Driver\Stm\STM.o
 .debug_loc     0x00001a80       0xe0 src\Driver\Wdg\Wdg.o
 .debug_loc     0x00001b60       0x20 src\Driver\includes\Mcal.o
 .debug_loc     0x00001b80       0x60 src\Driver\includes\Mcal_DmaLib.o
 .debug_loc     0x00001be0      0x1c0 src\Driver\includes\Mcal_TcLib.o
 .debug_loc     0x00001da0      0x240 src\Driver\includes\Mcal_WdgLib.o
 .debug_loc     0x00001fe0      0xc00 src\Driver\includes\SchM.o
 .debug_loc     0x00002be0       0x20 src\main.o
 .debug_loc     0x00002c00       0x13 c:/hightec/toolchains/tricore/v4.6.6.1/bin/../lib/gcc/tricore/4.6.4/../../../../tricore/lib/tc161/short-double\libdnk_c.a(rand.o)
 .debug_loc     0x00002c13       0x1e c:/hightec/toolchains/tricore/v4.6.6.1/bin/../lib/gcc/tricore/4.6.4/../../../../tricore/lib/tc161/short-double\libdnk_c.a(srand.o)
 .debug_loc     0x00002c31       0xd4 c:/hightec/toolchains/tricore/v4.6.6.1/bin/../lib/gcc/tricore/4.6.4/../../../../tricore/lib/tc161/short-double\libos.a(wdtcon.o)

.debug_aranges  memory region -> *default*
                0x00000000      0x380
 .debug_aranges
                0x00000000       0x20 src\Core\Appl\Appl.o
 .debug_aranges
                0x00000020       0x20 src\Core\Cal\Cal.o
 .debug_aranges
                0x00000040       0x20 src\Core\CanIf\CanIf.o
 .debug_aranges
                0x00000060       0x20 src\Core\CanTp\CanTp.o
 .debug_aranges
                0x00000080       0x20 src\Core\Dcm\Dcm.o
 .debug_aranges
                0x000000a0       0x20 src\Core\Dcm\Dcm_Dsp.o
 .debug_aranges
                0x000000c0       0x20 src\Core\Fl\FL.o
 .debug_aranges
                0x000000e0       0x20 src\Core\SecM\SecM.o
 .debug_aranges
                0x00000100       0x20 src\Driver\Can\Can.o
 .debug_aranges
                0x00000120       0x20 src\Driver\Fls\Fls.o
 .debug_aranges
                0x00000140       0x20 src\Driver\MCU\Mcu.o
 .debug_aranges
                0x00000160       0x20 src\Driver\MCU\Mcu_Dma.o
 .debug_aranges
                0x00000180       0x20 src\Driver\MCU\Mcu_Platform.o
 .debug_aranges
                0x000001a0       0x20 src\Driver\Stm\STM.o
 .debug_aranges
                0x000001c0       0x20 src\Driver\Wdg\Wdg.o
 .debug_aranges
                0x000001e0       0x20 src\Driver\includes\Mcal.o
 .debug_aranges
                0x00000200       0x20 src\Driver\includes\Mcal_DmaLib.o
 .debug_aranges
                0x00000220       0x20 src\Driver\includes\Mcal_TcLib.o
 .debug_aranges
                0x00000240       0x20 src\Driver\includes\Mcal_WdgLib.o
 .debug_aranges
                0x00000260       0x20 src\Driver\includes\SchM.o
 .debug_aranges
                0x00000280       0x20 src\crt0-tc2x.o
 .debug_aranges
                0x000002a0       0x20 src\main.o
 .debug_aranges
                0x000002c0       0x20 c:/hightec/toolchains/tricore/v4.6.6.1/bin/../lib/gcc/tricore/4.6.4/../../../../tricore/lib/tc161/short-double\libdnk_c.a(rand.o)
 .debug_aranges
                0x000002e0       0x20 c:/hightec/toolchains/tricore/v4.6.6.1/bin/../lib/gcc/tricore/4.6.4/../../../../tricore/lib/tc161/short-double\libdnk_c.a(srand.o)
 .debug_aranges
                0x00000300       0x38 c:/hightec/toolchains/tricore/v4.6.6.1/bin/../lib/gcc/tricore/4.6.4/../../../../tricore/lib/tc161/short-double\libos.a(wdtcon.o)
 .debug_aranges
                0x00000338       0x20 c:/hightec/toolchains/tricore/v4.6.6.1/bin/../lib/gcc/tricore/4.6.4/../../../../tricore/lib/tc161/short-double\libos.a(libos_exit.o)
 .debug_aranges
                0x00000358       0x28 c:/hightec/toolchains/tricore/v4.6.6.1/bin/../lib/gcc/tricore/4.6.4/tc161/short-double/crtn.o

.debug_ranges   memory region -> *default*
                0x00000000       0x78
 .debug_ranges  0x00000000       0x10 c:/hightec/toolchains/tricore/v4.6.6.1/bin/../lib/gcc/tricore/4.6.4/../../../../tricore/lib/tc161/short-double\libdnk_c.a(rand.o)
 .debug_ranges  0x00000010       0x10 c:/hightec/toolchains/tricore/v4.6.6.1/bin/../lib/gcc/tricore/4.6.4/../../../../tricore/lib/tc161/short-double\libdnk_c.a(srand.o)
 .debug_ranges  0x00000020       0x28 c:/hightec/toolchains/tricore/v4.6.6.1/bin/../lib/gcc/tricore/4.6.4/../../../../tricore/lib/tc161/short-double\libos.a(wdtcon.o)
 .debug_ranges  0x00000048       0x10 c:/hightec/toolchains/tricore/v4.6.6.1/bin/../lib/gcc/tricore/4.6.4/../../../../tricore/lib/tc161/short-double\libos.a(libos_exit.o)
 .debug_ranges  0x00000058       0x20 c:/hightec/toolchains/tricore/v4.6.6.1/bin/../lib/gcc/tricore/4.6.4/tc161/short-double/crtn.o

Cross Reference Table

Symbol                                            File
Appl_CheckConsistency                             src\Core\Appl\Appl.o
                                                  src\Core\Dcm\Dcm_Dsp.o
Appl_EcuReset                                     src\Core\Appl\Appl.o
                                                  src\Core\Dcm\Dcm_Dsp.o
                                                  src\Core\Dcm\Dcm.o
Appl_EcuShutdown                                  src\Core\Appl\Appl.o
Appl_EcuStartup                                   src\Core\Appl\Appl.o
                                                  src\main.o
Appl_FlStartup                                    src\Core\Appl\Appl.o
Appl_Memcpy                                       src\Core\Appl\Appl.o
                                                  src\Core\Fl\FL.o
Appl_Memset                                       src\Core\Appl\Appl.o
                                                  src\Core\Fl\FL.o
Appl_UpdateTriggerCondition                       src\Core\Appl\Appl.o
                                                  src\main.o
                                                  src\Core\SecM\SecM.o
                                                  src\Core\Fl\FL.o
BLFlash_InfoPtr                                   src\Driver\Fls\Fls.o
                                                  src\Core\Fl\FL.o
BL_Information                                    src\Core\Fl\FL.o
Cal_Crc32Tab                                      src\Core\Cal\Cal.o
Cal_CrcCal                                        src\Core\Cal\Cal.o
                                                  src\Core\SecM\SecM.o
Cal_CrcFinalize                                   src\Core\Cal\Cal.o
                                                  src\Core\SecM\SecM.o
Cal_CrcInit                                       src\Core\Cal\Cal.o
                                                  src\Core\SecM\SecM.o
CanIfRxCh                                         src\Cfg\CanIf\CanIf_Cfg.o
                                                  src\Core\CanIf\CanIf.o
CanIfTxCh                                         src\Cfg\CanIf\CanIf_Cfg.o
                                                  src\Core\CanIf\CanIf.o
CanIf_ControllerBusOff                            src\Core\CanIf\CanIf.o
                                                  src\Driver\Can\Can.o
CanIf_Init                                        src\Core\CanIf\CanIf.o
                                                  src\Core\Appl\Appl.o
CanIf_MainFunction                                src\Core\CanIf\CanIf.o
                                                  src\Core\Fl\FL.o
                                                  src\Core\Dcm\Dcm_Dsp.o
                                                  src\Core\Appl\Appl.o
CanIf_RxIndication                                src\Core\CanIf\CanIf.o
                                                  src\Driver\Can\Can.o
CanIf_Transmit                                    src\Core\CanIf\CanIf.o
                                                  src\Core\CanTp\CanTp.o
CanIf_TxConfirmation                              src\Core\CanIf\CanIf.o
                                                  src\Driver\Can\Can.o
CanTp_Init                                        src\Core\CanTp\CanTp.o
                                                  src\Core\Appl\Appl.o
CanTp_MainFunction                                src\Core\CanTp\CanTp.o
                                                  src\Core\Fl\FL.o
                                                  src\Core\Dcm\Dcm_Dsp.o
                                                  src\Core\Appl\Appl.o
CanTp_RxIndication                                src\Core\CanTp\CanTp.o
                                                  src\Cfg\CanIf\CanIf_Cfg.o
CanTp_RxSdu                                       src\Cfg\CanTp\CanTp_Cfg.o
                                                  src\Core\CanTp\CanTp.o
CanTp_Transmit                                    src\Core\CanTp\CanTp.o
                                                  src\Core\Dcm\Dcm.o
CanTp_TxConfirmation                              src\Core\CanTp\CanTp.o
                                                  src\Cfg\CanIf\CanIf_Cfg.o
CanTp_TxSdu                                       src\Cfg\CanTp\CanTp_Cfg.o
                                                  src\Core\CanTp\CanTp.o
Can_Cbk_CheckWakeup                               src\Driver\Can\Can.o
Can_ControllerConfigData                          src\Cfg\Can\Can_Cfg.o
                                                  src\Driver\Can\Can.o
                                                  src\Core\CanIf\CanIf.o
Can_ControllerPCConfigData                        src\Cfg\Can\Can_Cfg.o
                                                  src\Driver\Can\Can.o
Can_Deinit                                        src\Driver\Can\Can.o
                                                  src\Core\Appl\Appl.o
Can_DisableControllerInterrupts                   src\Driver\Can\Can.o
Can_EnableControllerInterrupts                    src\Driver\Can\Can.o
Can_HardwareObjectConfigData                      src\Cfg\Can\Can_Cfg.o
                                                  src\Driver\Can\Can.o
Can_HohConfigData                                 src\Cfg\Can\Can_Cfg.o
                                                  src\Driver\Can\Can.o
Can_Init                                          src\Driver\Can\Can.o
                                                  src\Core\CanIf\CanIf.o
Can_InitController                                src\Driver\Can\Can.o
                                                  src\Core\CanIf\CanIf.o
Can_MainFunction_BusOff                           src\Driver\Can\Can.o
                                                  src\Core\CanIf\CanIf.o
Can_MainFunction_Read                             src\Driver\Can\Can.o
                                                  src\Core\CanIf\CanIf.o
Can_MainFunction_Wakeup                           src\Driver\Can\Can.o
                                                  src\Core\CanIf\CanIf.o
Can_MainFunction_Write                            src\Driver\Can\Can.o
                                                  src\Core\CanIf\CanIf.o
Can_SetControllerMode                             src\Driver\Can\Can.o
                                                  src\Core\CanIf\CanIf.o
Can_Write                                         src\Driver\Can\Can.o
                                                  src\Core\CanIf\CanIf.o
Dcm_CheckMemory                                   src\Core\Dcm\Dcm_Dsp.o
                                                  src\Cfg\Dcm\Dcm_Cfg.o
Dcm_CheckProgDependencies                         src\Core\Dcm\Dcm_Dsp.o
                                                  src\Cfg\Dcm\Dcm_Cfg.o
Dcm_CheckProgPreCondition                         src\Core\Dcm\Dcm_Dsp.o
                                                  src\Cfg\Dcm\Dcm_Cfg.o
Dcm_CheckSecuritySupp                             src\Core\Dcm\Dcm.o
                                                  src\Core\Dcm\Dcm_Dsp.o
Dcm_CheckSessionSupp                              src\Core\Dcm\Dcm.o
                                                  src\Core\Dcm\Dcm_Dsp.o
Dcm_CheckSessionSuppMask                          src\Core\Dcm\Dcm.o
                                                  src\Core\Dcm\Dcm_Dsp.o
Dcm_CheckSessionSuppMask_2E                       src\Core\Dcm\Dcm.o
                                                  src\Core\Dcm\Dcm_Dsp.o
Dcm_ComControlRow                                 src\Cfg\Dcm\Dcm_Cfg.o
                                                  src\Core\Dcm\Dcm_Dsp.o
Dcm_DTCSettingRow                                 src\Cfg\Dcm\Dcm_Cfg.o
                                                  src\Core\Dcm\Dcm_Dsp.o
Dcm_DownloadRow                                   src\Cfg\Dcm\Dcm_Cfg.o
                                                  src\Core\Dcm\Dcm_Dsp.o
Dcm_DspInit                                       src\Core\Dcm\Dcm_Dsp.o
                                                  src\Core\Dcm\Dcm.o
Dcm_EraseMemory                                   src\Core\Dcm\Dcm_Dsp.o
                                                  src\Cfg\Dcm\Dcm_Cfg.o
Dcm_ForcePending                                  src\Core\Dcm\Dcm.o
                                                  src\Core\Appl\Appl.o
Dcm_GetSecurityLevel                              src\Core\Dcm\Dcm.o
                                                  src\Core\Dcm\Dcm_Dsp.o
                                                  src\Core\Appl\Appl.o
Dcm_GetSecurityTimerExpired                       src\Core\Dcm\Dcm.o
                                                  src\Core\Dcm\Dcm_Dsp.o
Dcm_GetSessionMode                                src\Core\Dcm\Dcm.o
                                                  src\Core\Dcm\Dcm_Dsp.o
                                                  src\Core\Appl\Appl.o
Dcm_Init                                          src\Core\Dcm\Dcm.o
                                                  src\Core\Appl\Appl.o
Dcm_MainFunction                                  src\Core\Dcm\Dcm.o
                                                  src\Core\Appl\Appl.o
Dcm_MainRxBuff                                    src\Core\Dcm\Dcm.o
Dcm_MainTxBuff                                    src\Core\Dcm\Dcm.o
Dcm_Pending2E                                     src\Core\Dcm\Dcm_Dsp.o
                                                  src\Cfg\Dcm\Dcm_Cfg.o
Dcm_Pending31                                     src\Core\Dcm\Dcm_Dsp.o
                                                  src\Cfg\Dcm\Dcm_Cfg.o
Dcm_Pending36                                     src\Core\Dcm\Dcm_Dsp.o
                                                  src\Cfg\Dcm\Dcm_Cfg.o
Dcm_ProgramInit                                   src\Core\Dcm\Dcm.o
                                                  src\Core\Appl\Appl.o
Dcm_ProvideRxBuffer                               src\Core\Dcm\Dcm.o
                                                  src\Core\CanTp\CanTp.o
Dcm_ProvideTxBuffer                               src\Core\Dcm\Dcm.o
                                                  src\Core\CanTp\CanTp.o
Dcm_ReadDidRow                                    src\Cfg\Dcm\Dcm_Cfg.o
                                                  src\Core\Dcm\Dcm_Dsp.o
Dcm_RecvMsg10                                     src\Core\Dcm\Dcm_Dsp.o
                                                  src\Cfg\Dcm\Dcm_Cfg.o
Dcm_RecvMsg11                                     src\Core\Dcm\Dcm_Dsp.o
                                                  src\Cfg\Dcm\Dcm_Cfg.o
Dcm_RecvMsg22                                     src\Core\Dcm\Dcm_Dsp.o
                                                  src\Cfg\Dcm\Dcm_Cfg.o
Dcm_RecvMsg27                                     src\Core\Dcm\Dcm_Dsp.o
                                                  src\Cfg\Dcm\Dcm_Cfg.o
Dcm_RecvMsg28                                     src\Core\Dcm\Dcm_Dsp.o
                                                  src\Cfg\Dcm\Dcm_Cfg.o
Dcm_RecvMsg2E                                     src\Core\Dcm\Dcm_Dsp.o
                                                  src\Cfg\Dcm\Dcm_Cfg.o
Dcm_RecvMsg31                                     src\Core\Dcm\Dcm_Dsp.o
                                                  src\Cfg\Dcm\Dcm_Cfg.o
Dcm_RecvMsg34                                     src\Core\Dcm\Dcm_Dsp.o
                                                  src\Cfg\Dcm\Dcm_Cfg.o
Dcm_RecvMsg36                                     src\Core\Dcm\Dcm_Dsp.o
                                                  src\Cfg\Dcm\Dcm_Cfg.o
Dcm_RecvMsg37                                     src\Core\Dcm\Dcm_Dsp.o
                                                  src\Cfg\Dcm\Dcm_Cfg.o
Dcm_RecvMsg3E                                     src\Core\Dcm\Dcm_Dsp.o
                                                  src\Cfg\Dcm\Dcm_Cfg.o
Dcm_RecvMsg85                                     src\Core\Dcm\Dcm_Dsp.o
                                                  src\Cfg\Dcm\Dcm_Cfg.o
Dcm_ResetRow                                      src\Cfg\Dcm\Dcm_Cfg.o
                                                  src\Core\Dcm\Dcm_Dsp.o
Dcm_RoutineControlRow                             src\Cfg\Dcm\Dcm_Cfg.o
                                                  src\Core\Dcm\Dcm_Dsp.o
Dcm_RxIndication                                  src\Core\Dcm\Dcm.o
                                                  src\Core\CanTp\CanTp.o
Dcm_SecurityRow                                   src\Cfg\Dcm\Dcm_Cfg.o
                                                  src\Core\Dcm\Dcm_Dsp.o
Dcm_SendNcr                                       src\Core\Dcm\Dcm.o
                                                  src\Core\Fl\FL.o
                                                  src\Core\Dcm\Dcm_Dsp.o
Dcm_SendRsp                                       src\Core\Dcm\Dcm.o
                                                  src\Core\Dcm\Dcm_Dsp.o
Dcm_ServiceFinish                                 src\Core\Dcm\Dcm.o
                                                  src\Core\Dcm\Dcm_Dsp.o
Dcm_ServiceTable                                  src\Cfg\Dcm\Dcm_Cfg.o
                                                  src\Core\Dcm\Dcm.o
Dcm_SessionRow                                    src\Cfg\Dcm\Dcm_Cfg.o
                                                  src\Core\Dcm\Dcm_Dsp.o
Dcm_SetSecurityLevel                              src\Core\Dcm\Dcm.o
                                                  src\Core\Dcm\Dcm_Dsp.o
Dcm_SetSessionMode                                src\Core\Dcm\Dcm.o
                                                  src\Core\Dcm\Dcm_Dsp.o
Dcm_StartP3cTimer                                 src\Core\Dcm\Dcm.o
                                                  src\Driver\Can\Can.o
Dcm_StartResetTimer                               src\Core\Dcm\Dcm.o
                                                  src\Core\Dcm\Dcm_Dsp.o
Dcm_StartSecurityTimer                            src\Core\Dcm\Dcm.o
                                                  src\Core\Dcm\Dcm_Dsp.o
Dcm_TxConfirmation                                src\Core\Dcm\Dcm.o
                                                  src\Core\CanTp\CanTp.o
Dcm_WriteDidRow                                   src\Cfg\Dcm\Dcm_Cfg.o
                                                  src\Core\Dcm\Dcm_Dsp.o
Dcm_testPresentRow                                src\Cfg\Dcm\Dcm_Cfg.o
                                                  src\Core\Dcm\Dcm_Dsp.o
FL_BlkInfo                                        src\Cfg\FL\FL_Cfg.o
                                                  src\Core\Fl\FL.o
                                                  src\Core\Dcm\Dcm_Dsp.o
FL_CheckProgPreCondition                          src\Core\Fl\FL.o
                                                  src\Core\Dcm\Dcm_Dsp.o
FL_CheckSumRoutine                                src\Core\Fl\FL.o
                                                  src\Core\Dcm\Dcm_Dsp.o
FL_DownloadRequestValid                           src\Core\Fl\FL.o
                                                  src\Core\Dcm\Dcm_Dsp.o
FL_EraseRoutine                                   src\Core\Fl\FL.o
                                                  src\Core\Dcm\Dcm_Dsp.o
FL_ExitTransferData                               src\Core\Fl\FL.o
                                                  src\Core\Dcm\Dcm_Dsp.o
FL_FlashProgramRegion                             src\Core\Fl\FL.o
                                                  src\Core\Dcm\Dcm_Dsp.o
FL_InitState                                      src\Core\Fl\FL.o
                                                  src\Core\Appl\Appl.o
FL_MainFunction                                   src\Core\Fl\FL.o
                                                  src\main.o
FL_NvmInfo                                        src\Core\Fl\FL.o
                                                  src\Core\SecM\SecM.o
                                                  src\Core\Dcm\Dcm_Dsp.o
                                                  src\Core\Appl\Appl.o
FL_ReadBootSWReferenceNumber                      src\Core\Fl\FL.o
                                                  src\Cfg\Dcm\Dcm_Cfg.o
FL_ReadFingerPrint                                src\Core\Fl\FL.o
                                                  src\Cfg\Dcm\Dcm_Cfg.o
FL_ReadMemory                                     src\Core\Fl\FL.o
                                                  src\Core\SecM\SecM.o
FL_ReadProgAttemptCounter                         src\Core\Fl\FL.o
FL_ReadProgCounter                                src\Core\Fl\FL.o
FL_ReadSysECUHWVer                                src\Core\Fl\FL.o
FL_ServiceFinished                                src\Core\Fl\FL.o
                                                  src\Core\Dcm\Dcm.o
FL_WriteFingerPrint                               src\Core\Fl\FL.o
                                                  src\Cfg\Dcm\Dcm_Cfg.o
FL_WriteRepairShopCode                            src\Core\Fl\FL.o
FL_updateProgCnt                                  src\Core\Fl\FL.o
                                                  src\Core\Dcm\Dcm_Dsp.o
Fl_GetActiveJob                                   src\Core\Fl\FL.o
                                                  src\Core\Dcm\Dcm.o
                                                  src\Core\Appl\Appl.o
FlashReadByte                                     src\Driver\Fls\Fls.o
                                                  src\Core\Fl\FL.o
FlashReadMemory                                   src\Driver\Fls\Fls.o
                                                  src\Core\Fl\FL.o
                                                  src\Core\Appl\Appl.o
FunctService255                                   src\Core\Appl\Appl.o
                                                  src\Driver\Can\Can.o
                                                  src\Core\Dcm\Dcm_Dsp.o
                                                  src\Core\Dcm\Dcm.o
Mcal_CpuWdtCheckAccess                            src\Driver\includes\Mcal_WdgLib.o
Mcal_CpuWdtModifyAccess                           src\Driver\includes\Mcal_WdgLib.o
Mcal_CpuWdtPwSequence                             src\Driver\includes\Mcal_WdgLib.o
Mcal_DmaCfgNoOfMovesPerTransfer                   src\Driver\includes\Mcal_DmaLib.o
Mcal_DmaDisableIntr                               src\Driver\includes\Mcal_DmaLib.o
Mcal_DmaEnableIntr                                src\Driver\includes\Mcal_DmaLib.o
Mcal_GetCoreId                                    src\Driver\includes\Mcal_TcLib.o
                                                  src\Driver\MCU\Mcu.o
Mcal_GetDsprReMapAddress                          src\Driver\includes\Mcal_TcLib.o
Mcal_GetSpinLock                                  src\Driver\includes\Mcal_TcLib.o
                                                  src\Driver\includes\Mcal_WdgLib.o
Mcal_LockResource                                 src\Driver\includes\Mcal_TcLib.o
Mcal_ReleaseSpinLock                              src\Driver\includes\Mcal_TcLib.o
                                                  src\Driver\includes\Mcal_WdgLib.o
Mcal_ResetCpuENDINIT                              src\Driver\includes\Mcal_WdgLib.o
Mcal_ResetENDINIT                                 src\Driver\includes\Mcal_WdgLib.o
                                                  src\Driver\includes\Mcal_TcLib.o
                                                  src\Driver\MCU\Mcu_Dma.o
                                                  src\Driver\MCU\Mcu.o
Mcal_ResetSafetyENDINIT_Timed                     src\Driver\includes\Mcal_WdgLib.o
                                                  src\Driver\includes\Mcal_TcLib.o
                                                  src\Driver\MCU\Mcu_Platform.o
                                                  src\Driver\MCU\Mcu.o
Mcal_ResumeAllInterrupts                          src\Driver\includes\Mcal_TcLib.o
                                                  src\Driver\includes\Mcal_WdgLib.o
Mcal_SafeErrorHandler                             src\Driver\includes\Mcal.o
                                                  src\Driver\includes\Mcal_WdgLib.o
                                                  src\Driver\includes\Mcal_TcLib.o
Mcal_SafetyCheckAccess                            src\Driver\includes\Mcal_WdgLib.o
Mcal_SafetyModifyAccess                           src\Driver\includes\Mcal_WdgLib.o
Mcal_SafetyPwSequence                             src\Driver\includes\Mcal_WdgLib.o
Mcal_SetCpuENDINIT                                src\Driver\includes\Mcal_WdgLib.o
Mcal_SetCpuPC                                     src\Driver\includes\Mcal_TcLib.o
Mcal_SetENDINIT                                   src\Driver\includes\Mcal_WdgLib.o
                                                  src\Driver\includes\Mcal_TcLib.o
                                                  src\Driver\MCU\Mcu_Dma.o
                                                  src\Driver\MCU\Mcu.o
Mcal_SetRegValSV                                  src\Driver\includes\Mcal_TcLib.o
Mcal_SetSafetyENDINIT_Timed                       src\Driver\includes\Mcal_WdgLib.o
                                                  src\Driver\includes\Mcal_TcLib.o
                                                  src\Driver\MCU\Mcu_Platform.o
                                                  src\Driver\MCU\Mcu.o
Mcal_StartCore                                    src\Driver\includes\Mcal_TcLib.o
Mcal_SuspendAllInterrupts                         src\Driver\includes\Mcal_TcLib.o
                                                  src\Driver\includes\Mcal_WdgLib.o
Mcal_UnlockResource                               src\Driver\includes\Mcal_TcLib.o
Mcal_UpdateRegSV                                  src\Driver\includes\Mcal_TcLib.o
                                                  src\Driver\includes\Mcal_DmaLib.o
                                                  src\Driver\MCU\Mcu_Platform.o
                                                  src\Driver\MCU\Mcu.o
Mcu_ClockSetting                                  src\Driver\MCU\Mcu.o
                                                  src\Driver\MCU\Mcu_Platform.o
Mcu_ConfigRoot                                    src\Cfg\Mcu\Mcu_PBCfg.o
                                                  src\Core\Appl\Appl.o
Mcu_DeInit                                        src\Driver\MCU\Mcu.o
Mcu_DistributePllClock                            src\Driver\MCU\Mcu.o
                                                  src\Core\Appl\Appl.o
Mcu_GetPllStatus                                  src\Driver\MCU\Mcu.o
                                                  src\Core\Appl\Appl.o
Mcu_GetResetRawValue                              src\Driver\MCU\Mcu.o
Mcu_GetResetReason                                src\Driver\MCU\Mcu.o
                                                  src\Core\Appl\Appl.o
Mcu_Init                                          src\Driver\MCU\Mcu.o
                                                  src\Core\Appl\Appl.o
Mcu_InitClock                                     src\Driver\MCU\Mcu.o
                                                  src\Core\Appl\Appl.o
Mcu_InitRamSection                                src\Driver\MCU\Mcu.o
Mcu_PerformReset                                  src\Driver\MCU\Mcu.o
                                                  src\Driver\Wdg\Wdg.o
Mcu_ResetStatusVal                                src\Driver\MCU\Mcu.o
Mcu_SetMode                                       src\Driver\MCU\Mcu.o
Mcu_kConfigPtr                                    src\Driver\MCU\Mcu.o
                                                  src\Driver\MCU\Mcu_Platform.o
Mcu_lDmaDeInit                                    src\Driver\MCU\Mcu_Dma.o
Mcu_lDmaInit                                      src\Driver\MCU\Mcu_Dma.o
Mcu_lGetPlatformRstReason                         src\Driver\MCU\Mcu_Platform.o
                                                  src\Driver\MCU\Mcu.o
Mcu_lPlatformInit                                 src\Driver\MCU\Mcu_Platform.o
                                                  src\Driver\MCU\Mcu.o
Mcu_lSetIdleMode                                  src\Driver\MCU\Mcu_Platform.o
                                                  src\Driver\MCU\Mcu.o
Mcu_lSetSleepMode                                 src\Driver\MCU\Mcu_Platform.o
                                                  src\Driver\MCU\Mcu.o
Mcu_lSetStandbyMode                               src\Driver\MCU\Mcu_Platform.o
                                                  src\Driver\MCU\Mcu.o
PosResponse255                                    src\Core\Dcm\Dcm.o
                                                  src\Core\Appl\Appl.o
STM_Deinit                                        src\Driver\Stm\STM.o
                                                  src\Core\Appl\Appl.o
STM_GetFlag                                       src\Driver\Stm\STM.o
                                                  src\Core\Appl\Appl.o
STM_Init                                          src\Driver\Stm\STM.o
                                                  src\Core\Appl\Appl.o
SchM_Enter_Adc_DisableHwTrig                      src\Driver\includes\SchM.o
SchM_Enter_Adc_EnableHwTrig                       src\Driver\includes\SchM.o
SchM_Enter_Adc_GetGrpStatus                       src\Driver\includes\SchM.o
SchM_Enter_Adc_GetStreamLastPtr                   src\Driver\includes\SchM.o
SchM_Enter_Adc_PopQueue                           src\Driver\includes\SchM.o
SchM_Enter_Adc_PushQueue                          src\Driver\includes\SchM.o
SchM_Enter_Adc_ReadGroup                          src\Driver\includes\SchM.o
SchM_Enter_Adc_ScheduleNext                       src\Driver\includes\SchM.o
SchM_Enter_Adc_ScheduleStart                      src\Driver\includes\SchM.o
SchM_Enter_Adc_ScheduleStop                       src\Driver\includes\SchM.o
SchM_Enter_Adc_StartGroup                         src\Driver\includes\SchM.o
SchM_Enter_Adc_StopGroup                          src\Driver\includes\SchM.o
SchM_Enter_Can_17_MCanP_CanDisInt                 src\Driver\includes\SchM.o
SchM_Enter_Can_17_MCanP_CanEnInt                  src\Driver\includes\SchM.o
SchM_Enter_Can_17_MCanP_CanWrMO                   src\Driver\includes\SchM.o
SchM_Enter_Eth_17_EthMac_ProvideTxBuffer          src\Driver\includes\SchM.o
SchM_Enter_Eth_17_EthMac_SetControllerMode        src\Driver\includes\SchM.o
SchM_Enter_Eth_17_EthMac_Transmit                 src\Driver\includes\SchM.o
SchM_Enter_Eth_17_EthMac_TxRxIrqHandler           src\Driver\includes\SchM.o
SchM_Enter_FlsLoader_Erase                        src\Driver\includes\SchM.o
SchM_Enter_FlsLoader_Write                        src\Driver\includes\SchM.o
SchM_Enter_FlsLoader_lLock                        src\Driver\includes\SchM.o
SchM_Enter_Fls_17_Pmu_Erase                       src\Driver\includes\SchM.o
SchM_Enter_Fls_17_Pmu_Init                        src\Driver\includes\SchM.o
SchM_Enter_Fls_17_Pmu_Main                        src\Driver\includes\SchM.o
SchM_Enter_Fls_17_Pmu_ResumeErase                 src\Driver\includes\SchM.o
SchM_Enter_Fls_17_Pmu_Write                       src\Driver\includes\SchM.o
SchM_Enter_Fr_17_Eray_ControllerInit              src\Driver\includes\SchM.o
SchM_Enter_Fr_17_Eray_SetWakeupChannel            src\Driver\includes\SchM.o
SchM_Enter_Icu_17_GtmCcu6_Ccu6IenUpdate           src\Driver\includes\SchM.o
SchM_Enter_Icu_17_GtmCcu6_CcuInterruptHandle      src\Driver\includes\SchM.o
SchM_Enter_Icu_17_GtmCcu6_CcuVariableupdate       src\Driver\includes\SchM.o
SchM_Enter_Icu_17_GtmCcu6_EnableNotification      src\Driver\includes\SchM.o
SchM_Enter_Icu_17_GtmCcu6_EnableWakeup            src\Driver\includes\SchM.o
SchM_Enter_Icu_17_GtmCcu6_ResetEdgeCount          src\Driver\includes\SchM.o
SchM_Enter_Spi_AsyncTransmit                      src\Driver\includes\SchM.o
SchM_Enter_Spi_Cancel                             src\Driver\includes\SchM.o
SchM_Enter_Spi_DeInit                             src\Driver\includes\SchM.o
SchM_Enter_Spi_GetSequenceResult                  src\Driver\includes\SchM.o
SchM_Enter_Spi_Init                               src\Driver\includes\SchM.o
SchM_Enter_Spi_SyncTransmit                       src\Driver\includes\SchM.o
SchM_Enter_Spi_WriteIB                            src\Driver\includes\SchM.o
SchM_Enter_Wdg_17_Scu_ChangeMode                  src\Driver\includes\SchM.o
SchM_Enter_Wdg_17_Scu_SafetyInit                  src\Driver\includes\SchM.o
SchM_Enter_Wdg_17_Scu_SafetyOffMode               src\Driver\includes\SchM.o
SchM_Enter_Wdg_17_Scu_SafetyTrigger               src\Driver\includes\SchM.o
SchM_Enter_Wdg_17_Scu_TimerHandling               src\Driver\includes\SchM.o
SchM_Enter_Wdg_17_Scu_Trigger                     src\Driver\includes\SchM.o
SchM_Exit_Adc_DisableHwTrig                       src\Driver\includes\SchM.o
SchM_Exit_Adc_EnableHwTrig                        src\Driver\includes\SchM.o
SchM_Exit_Adc_GetGrpStatus                        src\Driver\includes\SchM.o
SchM_Exit_Adc_GetStreamLastPtr                    src\Driver\includes\SchM.o
SchM_Exit_Adc_PopQueue                            src\Driver\includes\SchM.o
SchM_Exit_Adc_PushQueue                           src\Driver\includes\SchM.o
SchM_Exit_Adc_ReadGroup                           src\Driver\includes\SchM.o
SchM_Exit_Adc_ScheduleNext                        src\Driver\includes\SchM.o
SchM_Exit_Adc_ScheduleStart                       src\Driver\includes\SchM.o
SchM_Exit_Adc_ScheduleStop                        src\Driver\includes\SchM.o
SchM_Exit_Adc_StartGroup                          src\Driver\includes\SchM.o
SchM_Exit_Adc_StopGroup                           src\Driver\includes\SchM.o
SchM_Exit_Can_17_MCanP_CanDisInt                  src\Driver\includes\SchM.o
SchM_Exit_Can_17_MCanP_CanEnInt                   src\Driver\includes\SchM.o
SchM_Exit_Can_17_MCanP_CanWrMO                    src\Driver\includes\SchM.o
SchM_Exit_Eth_17_EthMac_ProvideTxBuffer           src\Driver\includes\SchM.o
SchM_Exit_Eth_17_EthMac_SetControllerMode         src\Driver\includes\SchM.o
SchM_Exit_Eth_17_EthMac_Transmit                  src\Driver\includes\SchM.o
SchM_Exit_Eth_17_EthMac_TxRxIrqHandler            src\Driver\includes\SchM.o
SchM_Exit_FlsLoader_Erase                         src\Driver\includes\SchM.o
SchM_Exit_FlsLoader_Write                         src\Driver\includes\SchM.o
SchM_Exit_FlsLoader_lLock                         src\Driver\includes\SchM.o
SchM_Exit_Fls_17_Pmu_Erase                        src\Driver\includes\SchM.o
SchM_Exit_Fls_17_Pmu_Init                         src\Driver\includes\SchM.o
SchM_Exit_Fls_17_Pmu_Main                         src\Driver\includes\SchM.o
SchM_Exit_Fls_17_Pmu_ResumeErase                  src\Driver\includes\SchM.o
SchM_Exit_Fls_17_Pmu_Write                        src\Driver\includes\SchM.o
SchM_Exit_Fr_17_Eray_ControllerInit               src\Driver\includes\SchM.o
SchM_Exit_Fr_17_Eray_SetWakeupChannel             src\Driver\includes\SchM.o
SchM_Exit_Icu_17_GtmCcu6_Ccu6IenUpdate            src\Driver\includes\SchM.o
SchM_Exit_Icu_17_GtmCcu6_CcuInterruptHandle       src\Driver\includes\SchM.o
SchM_Exit_Icu_17_GtmCcu6_CcuVariableupdate        src\Driver\includes\SchM.o
SchM_Exit_Icu_17_GtmCcu6_EnableNotification       src\Driver\includes\SchM.o
SchM_Exit_Icu_17_GtmCcu6_EnableWakeup             src\Driver\includes\SchM.o
SchM_Exit_Icu_17_GtmCcu6_ResetEdgeCount           src\Driver\includes\SchM.o
SchM_Exit_Spi_AsyncTransmit                       src\Driver\includes\SchM.o
SchM_Exit_Spi_Cancel                              src\Driver\includes\SchM.o
SchM_Exit_Spi_DeInit                              src\Driver\includes\SchM.o
SchM_Exit_Spi_GetSequenceResult                   src\Driver\includes\SchM.o
SchM_Exit_Spi_Init                                src\Driver\includes\SchM.o
SchM_Exit_Spi_SyncTransmit                        src\Driver\includes\SchM.o
SchM_Exit_Spi_WriteIB                             src\Driver\includes\SchM.o
SchM_Exit_Wdg_17_Scu_ChangeMode                   src\Driver\includes\SchM.o
SchM_Exit_Wdg_17_Scu_SafetyInit                   src\Driver\includes\SchM.o
SchM_Exit_Wdg_17_Scu_SafetyOffMode                src\Driver\includes\SchM.o
SchM_Exit_Wdg_17_Scu_SafetyTrigger                src\Driver\includes\SchM.o
SchM_Exit_Wdg_17_Scu_TimerHandling                src\Driver\includes\SchM.o
SchM_Exit_Wdg_17_Scu_Trigger                      src\Driver\includes\SchM.o
ScuWdt_ClearCpuEndinit                            src\Driver\Wdg\Wdg.o
ScuWdt_initCpuWatchdog                            src\Driver\Wdg\Wdg.o
ScuWdt_setCpuEndinit                              src\Driver\Wdg\Wdg.o
SecM_CompareKey                                   src\Core\SecM\SecM.o
                                                  src\Cfg\Dcm\Dcm_Cfg.o
SecM_ComputeCRC                                   src\Core\SecM\SecM.o
                                                  src\Core\Fl\FL.o
                                                  src\Core\Appl\Appl.o
SecM_ComputeKey                                   src\Core\SecM\SecM.o
SecM_CrcDataBuffer                                src\Core\SecM\SecM.o
SecM_GenerateSeed                                 src\Core\SecM\SecM.o
                                                  src\Cfg\Dcm\Dcm_Cfg.o
SecM_Verification                                 src\Core\SecM\SecM.o
                                                  src\Core\Fl\FL.o
TestFlag                                          src\Core\Dcm\Dcm.o
Wdg_Kick                                          src\Driver\Wdg\Wdg.o
                                                  src\Core\Appl\Appl.o
Wdg_Start                                         src\Driver\Wdg\Wdg.o
                                                  src\Core\Appl\Appl.o
Wdg_Stop                                          src\Driver\Wdg\Wdg.o
Wdg_SystemReset                                   src\Driver\Wdg\Wdg.o
                                                  src\Core\Appl\Appl.o
_Jv_RegisterClasses                               c:/hightec/toolchains/tricore/v4.6.6.1/bin/../lib/gcc/tricore/4.6.4/tc161/short-double/crtbegin.o
_Randinit                                         c:/hightec/toolchains/tricore/v4.6.6.1/bin/../lib/gcc/tricore/4.6.4/../../../../tricore/lib/tc161/short-double\libdnk_c.a(rand.o)
                                                  c:/hightec/toolchains/tricore/v4.6.6.1/bin/../lib/gcc/tricore/4.6.4/../../../../tricore/lib/tc161/short-double\libdnk_c.a(srand.o)
_Randseed                                         c:/hightec/toolchains/tricore/v4.6.6.1/bin/../lib/gcc/tricore/4.6.4/../../../../tricore/lib/tc161/short-double\libdnk_c.a(rand.o)
                                                  c:/hightec/toolchains/tricore/v4.6.6.1/bin/../lib/gcc/tricore/4.6.4/../../../../tricore/lib/tc161/short-double\libdnk_c.a(srand.o)
_SMALL_DATA2_                                     src\crt0-tc2x.o
_SMALL_DATA3_                                     src\crt0-tc2x.o
_SMALL_DATA4_                                     src\crt0-tc2x.o
_SMALL_DATA_                                      src\crt0-tc2x.o
_Tls_setup__Randinit                              c:/hightec/toolchains/tricore/v4.6.6.1/bin/../lib/gcc/tricore/4.6.4/../../../../tricore/lib/tc161/short-double\libdnk_c.a(rand.o)
                                                  c:/hightec/toolchains/tricore/v4.6.6.1/bin/../lib/gcc/tricore/4.6.4/../../../../tricore/lib/tc161/short-double\libdnk_c.a(srand.o)
_Tls_setup__Randseed                              c:/hightec/toolchains/tricore/v4.6.6.1/bin/../lib/gcc/tricore/4.6.4/../../../../tricore/lib/tc161/short-double\libdnk_c.a(rand.o)
                                                  c:/hightec/toolchains/tricore/v4.6.6.1/bin/../lib/gcc/tricore/4.6.4/../../../../tricore/lib/tc161/short-double\libdnk_c.a(srand.o)
__CSA_BEGIN                                       src\crt0-tc2x.o
__CSA_END                                         src\crt0-tc2x.o
__DTOR_END__                                      c:/hightec/toolchains/tricore/v4.6.6.1/bin/../lib/gcc/tricore/4.6.4/tc161/short-double/crtend.o
                                                  c:/hightec/toolchains/tricore/v4.6.6.1/bin/../lib/gcc/tricore/4.6.4/tc161/short-double/crtbegin.o
__ISTACK                                          src\crt0-tc2x.o
__TRICORE_DERIVATE_NAME__                         src\crt0-tc2x.o
__USTACK                                          src\crt0-tc2x.o
__clear_table                                     src\crt0-tc2x.o
__clear_table_func                                src\crt0-tc2x.o
__copy_table                                      src\crt0-tc2x.o
__copy_table_func                                 src\crt0-tc2x.o
__dso_handle                                      c:/hightec/toolchains/tricore/v4.6.6.1/bin/../lib/gcc/tricore/4.6.4/tc161/short-double/crtbegin.o
__init_csa                                        src\crt0-tc2x.o
__progname                                        c:/hightec/toolchains/tricore/v4.6.6.1/bin/../lib/gcc/tricore/4.6.4/../../../../tricore/lib/tc161/short-double\libos.a(libos_exit.o)
_exit                                             c:/hightec/toolchains/tricore/v4.6.6.1/bin/../lib/gcc/tricore/4.6.4/../../../../tricore/lib/tc161/short-double\libos.a(libos_exit.o)
                                                  src\crt0-tc2x.o
_fini                                             c:/hightec/toolchains/tricore/v4.6.6.1/bin/../lib/gcc/tricore/4.6.4/tc161/short-double/crti.o
_init                                             c:/hightec/toolchains/tricore/v4.6.6.1/bin/../lib/gcc/tricore/4.6.4/tc161/short-double/crti.o
                                                  src\crt0-tc2x.o
_start                                            src\crt0-tc2x.o
cmpswap_w                                         src\Driver\includes\Mcal_TcLib.o
dcmDummyDefault                                   src\Core\Dcm\Dcm.o
                                                  src\Core\Dcm\Dcm_Dsp.o
lock_safety_wdtcon                                c:/hightec/toolchains/tricore/v4.6.6.1/bin/../lib/gcc/tricore/4.6.4/../../../../tricore/lib/tc161/short-double\libos.a(wdtcon.o)
                                                  src\Driver\Wdg\Wdg.o
                                                  src\Driver\Stm\STM.o
                                                  src\Driver\Can\Can.o
lock_wdtcon                                       c:/hightec/toolchains/tricore/v4.6.6.1/bin/../lib/gcc/tricore/4.6.4/../../../../tricore/lib/tc161/short-double\libos.a(wdtcon.o)
                                                  src\Driver\Wdg\Wdg.o
                                                  src\Driver\Can\Can.o
main                                              src\main.o
                                                  src\crt0-tc2x.o
rand                                              c:/hightec/toolchains/tricore/v4.6.6.1/bin/../lib/gcc/tricore/4.6.4/../../../../tricore/lib/tc161/short-double\libdnk_c.a(rand.o)
                                                  src\Core\SecM\SecM.o
srand                                             c:/hightec/toolchains/tricore/v4.6.6.1/bin/../lib/gcc/tricore/4.6.4/../../../../tricore/lib/tc161/short-double\libdnk_c.a(srand.o)
                                                  src\Core\SecM\SecM.o
unlock_safety_wdtcon                              c:/hightec/toolchains/tricore/v4.6.6.1/bin/../lib/gcc/tricore/4.6.4/../../../../tricore/lib/tc161/short-double\libos.a(wdtcon.o)
                                                  src\Driver\Wdg\Wdg.o
                                                  src\Driver\Stm\STM.o
                                                  src\Driver\Can\Can.o
unlock_wdtcon                                     c:/hightec/toolchains/tricore/v4.6.6.1/bin/../lib/gcc/tricore/4.6.4/../../../../tricore/lib/tc161/short-double\libos.a(wdtcon.o)
                                                  src\Driver\Wdg\Wdg.o
                                                  src\Driver\Can\Can.o
